
O3_Bootloader.elf:     file format elf32-littlearm

Sections:
Idx Name          Size      VMA       LMA       File off  Algn
  0 .isr_vector   0000026c  08000000  08000000  00001000  2**0
                  CONTENTS, ALLOC, LOAD, READONLY, DATA
  1 .text         000035a8  0800026c  0800026c  0000126c  2**2
                  CONTENTS, ALLOC, LOAD, READONLY, CODE
  2 .rodata       0000037f  08003814  08003814  00004814  2**2
                  CONTENTS, ALLOC, LOAD, READONLY, DATA
  3 .init_array   00000004  08003b94  08003b94  00004b94  2**2
                  CONTENTS, ALLOC, LOAD, READONLY, DATA
  4 .fini_array   00000004  08003b98  08003b98  00004b98  2**2
                  CONTENTS, ALLOC, LOAD, READONLY, DATA
  5 .data         00000068  20000000  08003b9c  00005000  2**2
                  CONTENTS, ALLOC, LOAD, DATA
  6 .bss          00000170  20000068  08003c04  00005068  2**2
                  ALLOC
  7 ._user_heap_stack 00002200  200001d8  08003c04  000051d8  2**0
                  ALLOC
  8 .ARM.attributes 00000036  00000000  00000000  00005068  2**0
                  CONTENTS, READONLY
  9 .debug_info   00007b48  00000000  00000000  0000509e  2**0
                  CONTENTS, READONLY, DEBUGGING, OCTETS
 10 .debug_abbrev 00001647  00000000  00000000  0000cbe6  2**0
                  CONTENTS, READONLY, DEBUGGING, OCTETS
 11 .debug_aranges 00000830  00000000  00000000  0000e230  2**3
                  CONTENTS, READONLY, DEBUGGING, OCTETS
 12 .debug_rnglists 00000605  00000000  00000000  0000ea60  2**0
                  CONTENTS, READONLY, DEBUGGING, OCTETS
 13 .debug_macro  000412e2  00000000  00000000  0000f065  2**0
                  CONTENTS, READONLY, DEBUGGING, OCTETS
 14 .debug_line   0000a099  00000000  00000000  00050347  2**0
                  CONTENTS, READONLY, DEBUGGING, OCTETS
 15 .debug_str    001a4691  00000000  00000000  0005a3e0  2**0
                  CONTENTS, READONLY, DEBUGGING, OCTETS
 16 .comment      00000043  00000000  00000000  001fea71  2**0
                  CONTENTS, READONLY
 17 .debug_frame  000024ec  00000000  00000000  001feab4  2**2
                  CONTENTS, READONLY, DEBUGGING, OCTETS
 18 .debug_line_str 00000053  00000000  00000000  00200fa0  2**0
                  CONTENTS, READONLY, DEBUGGING, OCTETS

Disassembly of section .text:

0800026c <__do_global_dtors_aux>:
 800026c:	b510      	push	{r4, lr}
 800026e:	4c05      	ldr	r4, [pc, #20]	@ (8000284 <__do_global_dtors_aux+0x18>)
 8000270:	7823      	ldrb	r3, [r4, #0]
 8000272:	b933      	cbnz	r3, 8000282 <__do_global_dtors_aux+0x16>
 8000274:	4b04      	ldr	r3, [pc, #16]	@ (8000288 <__do_global_dtors_aux+0x1c>)
 8000276:	b113      	cbz	r3, 800027e <__do_global_dtors_aux+0x12>
 8000278:	4804      	ldr	r0, [pc, #16]	@ (800028c <__do_global_dtors_aux+0x20>)
 800027a:	f3af 8000 	nop.w
 800027e:	2301      	movs	r3, #1
 8000280:	7023      	strb	r3, [r4, #0]
 8000282:	bd10      	pop	{r4, pc}
 8000284:	20000068 	.word	0x20000068
 8000288:	00000000 	.word	0x00000000
 800028c:	080037fc 	.word	0x080037fc

08000290 <frame_dummy>:
 8000290:	b508      	push	{r3, lr}
 8000292:	4b03      	ldr	r3, [pc, #12]	@ (80002a0 <frame_dummy+0x10>)
 8000294:	b11b      	cbz	r3, 800029e <frame_dummy+0xe>
 8000296:	4903      	ldr	r1, [pc, #12]	@ (80002a4 <frame_dummy+0x14>)
 8000298:	4803      	ldr	r0, [pc, #12]	@ (80002a8 <frame_dummy+0x18>)
 800029a:	f3af 8000 	nop.w
 800029e:	bd08      	pop	{r3, pc}
 80002a0:	00000000 	.word	0x00000000
 80002a4:	2000006c 	.word	0x2000006c
 80002a8:	080037fc 	.word	0x080037fc

080002ac <Boot_DisableAllInterrupts>:
#include "boot_jump.h"
#include "main.h"
#include <stdio.h>

static void Boot_DisableAllInterrupts(void)
{
 80002ac:	b480      	push	{r7}
 80002ae:	b083      	sub	sp, #12
 80002b0:	af00      	add	r7, sp, #0
    uint32_t index;

    for (index = 0U; index < (sizeof(NVIC->ICER) / sizeof(NVIC->ICER[0])); index++)
 80002b2:	2300      	movs	r3, #0
 80002b4:	607b      	str	r3, [r7, #4]
 80002b6:	e010      	b.n	80002da <Boot_DisableAllInterrupts+0x2e>
    {
        NVIC->ICER[index] = 0xFFFFFFFFU;
 80002b8:	4a0d      	ldr	r2, [pc, #52]	@ (80002f0 <Boot_DisableAllInterrupts+0x44>)
 80002ba:	687b      	ldr	r3, [r7, #4]
 80002bc:	3320      	adds	r3, #32
 80002be:	f04f 31ff 	mov.w	r1, #4294967295
 80002c2:	f842 1023 	str.w	r1, [r2, r3, lsl #2]
        NVIC->ICPR[index] = 0xFFFFFFFFU;
 80002c6:	4a0a      	ldr	r2, [pc, #40]	@ (80002f0 <Boot_DisableAllInterrupts+0x44>)
 80002c8:	687b      	ldr	r3, [r7, #4]
 80002ca:	3360      	adds	r3, #96	@ 0x60
 80002cc:	f04f 31ff 	mov.w	r1, #4294967295
 80002d0:	f842 1023 	str.w	r1, [r2, r3, lsl #2]
    for (index = 0U; index < (sizeof(NVIC->ICER) / sizeof(NVIC->ICER[0])); index++)
 80002d4:	687b      	ldr	r3, [r7, #4]
 80002d6:	3301      	adds	r3, #1
 80002d8:	607b      	str	r3, [r7, #4]
 80002da:	687b      	ldr	r3, [r7, #4]
 80002dc:	2b0f      	cmp	r3, #15
 80002de:	d9eb      	bls.n	80002b8 <Boot_DisableAllInterrupts+0xc>
    }
}
 80002e0:	bf00      	nop
 80002e2:	bf00      	nop
 80002e4:	370c      	adds	r7, #12
 80002e6:	46bd      	mov	sp, r7
 80002e8:	f85d 7b04 	ldr.w	r7, [sp], #4
 80002ec:	4770      	bx	lr
 80002ee:	bf00      	nop
 80002f0:	e000e100 	.word	0xe000e100

080002f4 <Boot_IsApplicationValid>:

int Boot_IsApplicationValid(uint32_t app_base)
{
 80002f4:	b580      	push	{r7, lr}
 80002f6:	b086      	sub	sp, #24
 80002f8:	af00      	add	r7, sp, #0
 80002fa:	6078      	str	r0, [r7, #4]
    uint32_t msp = *(volatile uint32_t *)app_base;
 80002fc:	687b      	ldr	r3, [r7, #4]
 80002fe:	681b      	ldr	r3, [r3, #0]
 8000300:	617b      	str	r3, [r7, #20]
    uint32_t reset_vector = *(volatile uint32_t *)(app_base + 4U);
 8000302:	687b      	ldr	r3, [r7, #4]
 8000304:	3304      	adds	r3, #4
 8000306:	681b      	ldr	r3, [r3, #0]
 8000308:	613b      	str	r3, [r7, #16]
    uint32_t reset_addr;

    printf("[BOOT] Validate app @ 0x%08lX\n", (unsigned long)app_base);
 800030a:	6879      	ldr	r1, [r7, #4]
 800030c:	4820      	ldr	r0, [pc, #128]	@ (8000390 <Boot_IsApplicationValid+0x9c>)
 800030e:	f002 fb9f 	bl	8002a50 <iprintf>
    printf("[BOOT] MSP=0x%08lX RESET=0x%08lX\n", (unsigned long)msp, (unsigned long)reset_vector);
 8000312:	693a      	ldr	r2, [r7, #16]
 8000314:	6979      	ldr	r1, [r7, #20]
 8000316:	481f      	ldr	r0, [pc, #124]	@ (8000394 <Boot_IsApplicationValid+0xa0>)
 8000318:	f002 fb9a 	bl	8002a50 <iprintf>

    if (msp < RAM_BASE || msp > RAM_TOP)
 800031c:	697b      	ldr	r3, [r7, #20]
 800031e:	f1b3 5f00 	cmp.w	r3, #536870912	@ 0x20000000
 8000322:	d303      	bcc.n	800032c <Boot_IsApplicationValid+0x38>
 8000324:	697b      	ldr	r3, [r7, #20]
 8000326:	4a1c      	ldr	r2, [pc, #112]	@ (8000398 <Boot_IsApplicationValid+0xa4>)
 8000328:	4293      	cmp	r3, r2
 800032a:	d904      	bls.n	8000336 <Boot_IsApplicationValid+0x42>
    {
        printf("[BOOT] Invalid app: MSP out of RAM range\n");
 800032c:	481b      	ldr	r0, [pc, #108]	@ (800039c <Boot_IsApplicationValid+0xa8>)
 800032e:	f002 fbf7 	bl	8002b20 <puts>
        return 0;
 8000332:	2300      	movs	r3, #0
 8000334:	e028      	b.n	8000388 <Boot_IsApplicationValid+0x94>
    }

    if ((msp & 0x7U) != 0U)
 8000336:	697b      	ldr	r3, [r7, #20]
 8000338:	f003 0307 	and.w	r3, r3, #7
 800033c:	2b00      	cmp	r3, #0
 800033e:	d004      	beq.n	800034a <Boot_IsApplicationValid+0x56>
    {
        printf("[BOOT] Invalid app: MSP not 8-byte aligned\n");
 8000340:	4817      	ldr	r0, [pc, #92]	@ (80003a0 <Boot_IsApplicationValid+0xac>)
 8000342:	f002 fbed 	bl	8002b20 <puts>
        return 0;
 8000346:	2300      	movs	r3, #0
 8000348:	e01e      	b.n	8000388 <Boot_IsApplicationValid+0x94>
    }

    if ((reset_vector & 0x1U) == 0U)
 800034a:	693b      	ldr	r3, [r7, #16]
 800034c:	f003 0301 	and.w	r3, r3, #1
 8000350:	2b00      	cmp	r3, #0
 8000352:	d104      	bne.n	800035e <Boot_IsApplicationValid+0x6a>
    {
        printf("[BOOT] Invalid app: reset vector Thumb bit not set\n");
 8000354:	4813      	ldr	r0, [pc, #76]	@ (80003a4 <Boot_IsApplicationValid+0xb0>)
 8000356:	f002 fbe3 	bl	8002b20 <puts>
        return 0;
 800035a:	2300      	movs	r3, #0
 800035c:	e014      	b.n	8000388 <Boot_IsApplicationValid+0x94>
    }

    reset_addr = reset_vector & ~1U;
 800035e:	693b      	ldr	r3, [r7, #16]
 8000360:	f023 0301 	bic.w	r3, r3, #1
 8000364:	60fb      	str	r3, [r7, #12]
    if (reset_addr < app_base || reset_addr > APP_END)
 8000366:	68fa      	ldr	r2, [r7, #12]
 8000368:	687b      	ldr	r3, [r7, #4]
 800036a:	429a      	cmp	r2, r3
 800036c:	d303      	bcc.n	8000376 <Boot_IsApplicationValid+0x82>
 800036e:	68fb      	ldr	r3, [r7, #12]
 8000370:	f1b3 6f02 	cmp.w	r3, #136314880	@ 0x8200000
 8000374:	d304      	bcc.n	8000380 <Boot_IsApplicationValid+0x8c>
    {
        printf("[BOOT] Invalid app: reset vector out of app range\n");
 8000376:	480c      	ldr	r0, [pc, #48]	@ (80003a8 <Boot_IsApplicationValid+0xb4>)
 8000378:	f002 fbd2 	bl	8002b20 <puts>
        return 0;
 800037c:	2300      	movs	r3, #0
 800037e:	e003      	b.n	8000388 <Boot_IsApplicationValid+0x94>
    }

    printf("[BOOT] Application image looks valid\n");
 8000380:	480a      	ldr	r0, [pc, #40]	@ (80003ac <Boot_IsApplicationValid+0xb8>)
 8000382:	f002 fbcd 	bl	8002b20 <puts>
    return 1;
 8000386:	2301      	movs	r3, #1
}
 8000388:	4618      	mov	r0, r3
 800038a:	3718      	adds	r7, #24
 800038c:	46bd      	mov	sp, r7
 800038e:	bd80      	pop	{r7, pc}
 8000390:	08003814 	.word	0x08003814
 8000394:	08003834 	.word	0x08003834
 8000398:	20270000 	.word	0x20270000
 800039c:	08003858 	.word	0x08003858
 80003a0:	08003884 	.word	0x08003884
 80003a4:	080038b0 	.word	0x080038b0
 80003a8:	080038e4 	.word	0x080038e4
 80003ac:	08003918 	.word	0x08003918

080003b0 <Boot_JumpToApplication>:

void Boot_JumpToApplication(uint32_t app_base)
{
 80003b0:	b580      	push	{r7, lr}
 80003b2:	b08a      	sub	sp, #40	@ 0x28
 80003b4:	af00      	add	r7, sp, #0
 80003b6:	6078      	str	r0, [r7, #4]
    uint32_t app_msp;
    uint32_t app_reset_vector;

    printf("[BOOT] Jump requested to app @ 0x%08lX\n", (unsigned long)app_base);
 80003b8:	6879      	ldr	r1, [r7, #4]
 80003ba:	4831      	ldr	r0, [pc, #196]	@ (8000480 <Boot_JumpToApplication+0xd0>)
 80003bc:	f002 fb48 	bl	8002a50 <iprintf>

    printf("[BOOT] Disable IRQs\n");
 80003c0:	4830      	ldr	r0, [pc, #192]	@ (8000484 <Boot_JumpToApplication+0xd4>)
 80003c2:	f002 fbad 	bl	8002b20 <puts>
  \details Disables IRQ interrupts by setting special-purpose register PRIMASK.
           Can only be executed in Privileged modes.
 */
__STATIC_FORCEINLINE void __disable_irq(void)
{
  __ASM volatile ("cpsid i" : : : "memory");
 80003c6:	b672      	cpsid	i
}
 80003c8:	bf00      	nop
    __disable_irq();
    Boot_DisableAllInterrupts();
 80003ca:	f7ff ff6f 	bl	80002ac <Boot_DisableAllInterrupts>

    printf("[BOOT] Stop SysTick\n");
 80003ce:	482e      	ldr	r0, [pc, #184]	@ (8000488 <Boot_JumpToApplication+0xd8>)
 80003d0:	f002 fba6 	bl	8002b20 <puts>
    SysTick->CTRL = 0U;
 80003d4:	4b2d      	ldr	r3, [pc, #180]	@ (800048c <Boot_JumpToApplication+0xdc>)
 80003d6:	2200      	movs	r2, #0
 80003d8:	601a      	str	r2, [r3, #0]
    SysTick->LOAD = 0U;
 80003da:	4b2c      	ldr	r3, [pc, #176]	@ (800048c <Boot_JumpToApplication+0xdc>)
 80003dc:	2200      	movs	r2, #0
 80003de:	605a      	str	r2, [r3, #4]
    SysTick->VAL  = 0U;
 80003e0:	4b2a      	ldr	r3, [pc, #168]	@ (800048c <Boot_JumpToApplication+0xdc>)
 80003e2:	2200      	movs	r2, #0
 80003e4:	609a      	str	r2, [r3, #8]

    app_msp = *(volatile uint32_t *)app_base;
 80003e6:	687b      	ldr	r3, [r7, #4]
 80003e8:	681b      	ldr	r3, [r3, #0]
 80003ea:	627b      	str	r3, [r7, #36]	@ 0x24
    app_reset_vector = *(volatile uint32_t *)(app_base + 4U);
 80003ec:	687b      	ldr	r3, [r7, #4]
 80003ee:	3304      	adds	r3, #4
 80003f0:	681b      	ldr	r3, [r3, #0]
 80003f2:	623b      	str	r3, [r7, #32]
    printf("[BOOT] App MSP=0x%08lX RESET=0x%08lX\n",
 80003f4:	6a3a      	ldr	r2, [r7, #32]
 80003f6:	6a79      	ldr	r1, [r7, #36]	@ 0x24
 80003f8:	4825      	ldr	r0, [pc, #148]	@ (8000490 <Boot_JumpToApplication+0xe0>)
 80003fa:	f002 fb29 	bl	8002a50 <iprintf>
           (unsigned long)app_msp,
           (unsigned long)app_reset_vector);

    printf("[BOOT] Relocate VTOR to 0x%08lX\n", (unsigned long)app_base);
 80003fe:	6879      	ldr	r1, [r7, #4]
 8000400:	4824      	ldr	r0, [pc, #144]	@ (8000494 <Boot_JumpToApplication+0xe4>)
 8000402:	f002 fb25 	bl	8002a50 <iprintf>
    SCB->VTOR = app_base;
 8000406:	4a24      	ldr	r2, [pc, #144]	@ (8000498 <Boot_JumpToApplication+0xe8>)
 8000408:	687b      	ldr	r3, [r7, #4]
 800040a:	6093      	str	r3, [r2, #8]
  __ASM volatile ("dsb 0xF":::"memory");
 800040c:	f3bf 8f4f 	dsb	sy
}
 8000410:	bf00      	nop
  __ASM volatile ("isb 0xF":::"memory");
 8000412:	f3bf 8f6f 	isb	sy
}
 8000416:	bf00      	nop
    __DSB();
    __ISB();

    printf("[BOOT] Restore core state and MSP\n");
 8000418:	4820      	ldr	r0, [pc, #128]	@ (800049c <Boot_JumpToApplication+0xec>)
 800041a:	f002 fb81 	bl	8002b20 <puts>
 800041e:	2300      	movs	r3, #0
 8000420:	60fb      	str	r3, [r7, #12]
  \details Writes the given value to the Control Register.
  \param [in]    control  Control Register value to set
 */
__STATIC_FORCEINLINE void __set_CONTROL(uint32_t control)
{
  __ASM volatile ("MSR control, %0" : : "r" (control) : "memory");
 8000422:	68fb      	ldr	r3, [r7, #12]
 8000424:	f383 8814 	msr	CONTROL, r3
  __ASM volatile ("isb 0xF":::"memory");
 8000428:	f3bf 8f6f 	isb	sy
}
 800042c:	bf00      	nop
  __ISB();
}
 800042e:	bf00      	nop
 8000430:	2300      	movs	r3, #0
 8000432:	613b      	str	r3, [r7, #16]
  \details Assigns the given value to the Base Priority register.
  \param [in]    basePri  Base Priority value to set
 */
__STATIC_FORCEINLINE void __set_BASEPRI(uint32_t basePri)
{
  __ASM volatile ("MSR basepri, %0" : : "r" (basePri) : "memory");
 8000434:	693b      	ldr	r3, [r7, #16]
 8000436:	f383 8811 	msr	BASEPRI, r3
}
 800043a:	bf00      	nop
 800043c:	2300      	movs	r3, #0
 800043e:	617b      	str	r3, [r7, #20]
  \details Assigns the given value to the Fault Mask register.
  \param [in]    faultMask  Fault Mask value to set
 */
__STATIC_FORCEINLINE void __set_FAULTMASK(uint32_t faultMask)
{
  __ASM volatile ("MSR faultmask, %0" : : "r" (faultMask) : "memory");
 8000440:	697b      	ldr	r3, [r7, #20]
 8000442:	f383 8813 	msr	FAULTMASK, r3
}
 8000446:	bf00      	nop
 8000448:	2300      	movs	r3, #0
 800044a:	61bb      	str	r3, [r7, #24]
#if (!(defined (__ARM_ARCH_8M_MAIN__ ) && (__ARM_ARCH_8M_MAIN__ == 1)) && \
    (!defined (__ARM_FEATURE_CMSE) || (__ARM_FEATURE_CMSE < 3)))
  // without main extensions, the non-secure MSPLIM is RAZ/WI
  (void)MainStackPtrLimit;
#else
  __ASM volatile ("MSR msplim, %0" : : "r" (MainStackPtrLimit));
 800044c:	69bb      	ldr	r3, [r7, #24]
 800044e:	f383 880a 	msr	MSPLIM, r3
#endif
}
 8000452:	bf00      	nop
 8000454:	2300      	movs	r3, #0
 8000456:	61fb      	str	r3, [r7, #28]
  __ASM volatile ("MSR psplim, %0" : : "r" (ProcStackPtrLimit));
 8000458:	69fb      	ldr	r3, [r7, #28]
 800045a:	f383 880b 	msr	PSPLIM, r3
}
 800045e:	bf00      	nop
  __ASM volatile ("isb 0xF":::"memory");
 8000460:	f3bf 8f6f 	isb	sy
}
 8000464:	bf00      	nop
    __set_FAULTMASK(0U);
    __set_MSPLIM(0U);
    __set_PSPLIM(0U);
    __ISB();

    printf("[BOOT] Re-enable global IRQs and branch to reset handler\n");
 8000466:	480e      	ldr	r0, [pc, #56]	@ (80004a0 <Boot_JumpToApplication+0xf0>)
 8000468:	f002 fb5a 	bl	8002b20 <puts>
  __ASM volatile ("cpsie i" : : : "memory");
 800046c:	b662      	cpsie	i
}
 800046e:	bf00      	nop
    __enable_irq();
    __asm volatile(
 8000470:	6a7b      	ldr	r3, [r7, #36]	@ 0x24
 8000472:	6a3a      	ldr	r2, [r7, #32]
 8000474:	f383 8808 	msr	MSP, r3
 8000478:	4710      	bx	r2
        "bx  %1         \n"
        :
        : "r" (app_msp), "r" (app_reset_vector)
        : "memory"
    );
    while (1) {}
 800047a:	bf00      	nop
 800047c:	e7fd      	b.n	800047a <Boot_JumpToApplication+0xca>
 800047e:	bf00      	nop
 8000480:	08003940 	.word	0x08003940
 8000484:	08003968 	.word	0x08003968
 8000488:	0800397c 	.word	0x0800397c
 800048c:	e000e010 	.word	0xe000e010
 8000490:	08003990 	.word	0x08003990
 8000494:	080039b8 	.word	0x080039b8
 8000498:	e000ed00 	.word	0xe000ed00
 800049c:	080039dc 	.word	0x080039dc
 80004a0:	08003a00 	.word	0x08003a00

080004a4 <HAL_Init>:
  *         each 1ms in the SysTick_Handler() interrupt handler.
  *
  * @retval HAL status
  */
HAL_StatusTypeDef HAL_Init(void)
{
 80004a4:	b580      	push	{r7, lr}
 80004a6:	af00      	add	r7, sp, #0
  /* Configure Flash prefetch */
#if (PREFETCH_ENABLE != 0U)
  __HAL_FLASH_PREFETCH_BUFFER_ENABLE();
 80004a8:	4b12      	ldr	r3, [pc, #72]	@ (80004f4 <HAL_Init+0x50>)
 80004aa:	681b      	ldr	r3, [r3, #0]
 80004ac:	4a11      	ldr	r2, [pc, #68]	@ (80004f4 <HAL_Init+0x50>)
 80004ae:	f443 7380 	orr.w	r3, r3, #256	@ 0x100
 80004b2:	6013      	str	r3, [r2, #0]
#endif /* PREFETCH_ENABLE */

  /* Set Interrupt Group Priority */
  HAL_NVIC_SetPriorityGrouping(NVIC_PRIORITYGROUP_4);
 80004b4:	2003      	movs	r0, #3
 80004b6:	f000 f952 	bl	800075e <HAL_NVIC_SetPriorityGrouping>

  /* Update the SystemCoreClock global variable */
  SystemCoreClock = HAL_RCC_GetSysClockFreq() >> AHBPrescTable[(RCC->CFGR2 & RCC_CFGR2_HPRE) >> RCC_CFGR2_HPRE_Pos];
 80004ba:	f001 fde1 	bl	8002080 <HAL_RCC_GetSysClockFreq>
 80004be:	4602      	mov	r2, r0
 80004c0:	4b0d      	ldr	r3, [pc, #52]	@ (80004f8 <HAL_Init+0x54>)
 80004c2:	6a1b      	ldr	r3, [r3, #32]
 80004c4:	f003 030f 	and.w	r3, r3, #15
 80004c8:	490c      	ldr	r1, [pc, #48]	@ (80004fc <HAL_Init+0x58>)
 80004ca:	5ccb      	ldrb	r3, [r1, r3]
 80004cc:	fa22 f303 	lsr.w	r3, r2, r3
 80004d0:	4a0b      	ldr	r2, [pc, #44]	@ (8000500 <HAL_Init+0x5c>)
 80004d2:	6013      	str	r3, [r2, #0]

  /* Select HCLK as SysTick clock source */
  HAL_SYSTICK_CLKSourceConfig(SYSTICK_CLKSOURCE_HCLK);
 80004d4:	2004      	movs	r0, #4
 80004d6:	f000 f989 	bl	80007ec <HAL_SYSTICK_CLKSourceConfig>

  /* Use systick as time base source and configure 1ms tick (default clock after Reset is HSI) */
  if (HAL_InitTick(TICK_INT_PRIORITY) != HAL_OK)
 80004da:	200f      	movs	r0, #15
 80004dc:	f000 f81a 	bl	8000514 <HAL_InitTick>
 80004e0:	4603      	mov	r3, r0
 80004e2:	2b00      	cmp	r3, #0
 80004e4:	d001      	beq.n	80004ea <HAL_Init+0x46>
  {
    return HAL_ERROR;
 80004e6:	2301      	movs	r3, #1
 80004e8:	e002      	b.n	80004f0 <HAL_Init+0x4c>
  }

  /* Init the low level hardware */
  HAL_MspInit();
 80004ea:	f000 f80b 	bl	8000504 <HAL_MspInit>

  /* Return function status */
  return HAL_OK;
 80004ee:	2300      	movs	r3, #0
}
 80004f0:	4618      	mov	r0, r3
 80004f2:	bd80      	pop	{r7, pc}
 80004f4:	40022000 	.word	0x40022000
 80004f8:	46020c00 	.word	0x46020c00
 80004fc:	08003b10 	.word	0x08003b10
 8000500:	20000008 	.word	0x20000008

08000504 <HAL_MspInit>:
/**
  * @brief  Initializes the MSP.
  * @retval None
  */
__weak void HAL_MspInit(void)
{
 8000504:	b480      	push	{r7}
 8000506:	af00      	add	r7, sp, #0
  /* NOTE : This function Should not be modified, when the callback is needed,
            the HAL_MspInit could be implemented in the user file
   */
}
 8000508:	bf00      	nop
 800050a:	46bd      	mov	sp, r7
 800050c:	f85d 7b04 	ldr.w	r7, [sp], #4
 8000510:	4770      	bx	lr
	...

08000514 <HAL_InitTick>:
  *       implementation  in user file.
  * @param TickPriority: Tick interrupt priority.
  * @retval HAL status
  */
__weak HAL_StatusTypeDef HAL_InitTick(uint32_t TickPriority)
{
 8000514:	b580      	push	{r7, lr}
 8000516:	b084      	sub	sp, #16
 8000518:	af00      	add	r7, sp, #0
 800051a:	6078      	str	r0, [r7, #4]
  uint32_t ticknumber = 0U;
 800051c:	2300      	movs	r3, #0
 800051e:	60fb      	str	r3, [r7, #12]
  uint32_t systicksel;

  /* Check uwTickFreq for MisraC 2012 (even if uwTickFreq is a enum type that don't take the value zero)*/
  if ((uint32_t)uwTickFreq == 0UL)
 8000520:	4b33      	ldr	r3, [pc, #204]	@ (80005f0 <HAL_InitTick+0xdc>)
 8000522:	781b      	ldrb	r3, [r3, #0]
 8000524:	2b00      	cmp	r3, #0
 8000526:	d101      	bne.n	800052c <HAL_InitTick+0x18>
  {
    return HAL_ERROR;
 8000528:	2301      	movs	r3, #1
 800052a:	e05c      	b.n	80005e6 <HAL_InitTick+0xd2>
  }

  /* Check Clock source to calculate the tickNumber */
  if (READ_BIT(SysTick->CTRL, SysTick_CTRL_CLKSOURCE_Msk) == SysTick_CTRL_CLKSOURCE_Msk)
 800052c:	4b31      	ldr	r3, [pc, #196]	@ (80005f4 <HAL_InitTick+0xe0>)
 800052e:	681b      	ldr	r3, [r3, #0]
 8000530:	f003 0304 	and.w	r3, r3, #4
 8000534:	2b04      	cmp	r3, #4
 8000536:	d10c      	bne.n	8000552 <HAL_InitTick+0x3e>
  {
    /* HCLK selected as SysTick clock source */
    ticknumber = SystemCoreClock / (1000UL / (uint32_t)uwTickFreq);
 8000538:	4b2f      	ldr	r3, [pc, #188]	@ (80005f8 <HAL_InitTick+0xe4>)
 800053a:	681a      	ldr	r2, [r3, #0]
 800053c:	4b2c      	ldr	r3, [pc, #176]	@ (80005f0 <HAL_InitTick+0xdc>)
 800053e:	781b      	ldrb	r3, [r3, #0]
 8000540:	4619      	mov	r1, r3
 8000542:	f44f 737a 	mov.w	r3, #1000	@ 0x3e8
 8000546:	fbb3 f3f1 	udiv	r3, r3, r1
 800054a:	fbb2 f3f3 	udiv	r3, r2, r3
 800054e:	60fb      	str	r3, [r7, #12]
 8000550:	e037      	b.n	80005c2 <HAL_InitTick+0xae>
  }
  else
  {
    systicksel = HAL_SYSTICK_GetCLKSourceConfig();
 8000552:	f000 f9a3 	bl	800089c <HAL_SYSTICK_GetCLKSourceConfig>
 8000556:	60b8      	str	r0, [r7, #8]
    switch (systicksel)
 8000558:	68bb      	ldr	r3, [r7, #8]
 800055a:	2b02      	cmp	r3, #2
 800055c:	d023      	beq.n	80005a6 <HAL_InitTick+0x92>
 800055e:	68bb      	ldr	r3, [r7, #8]
 8000560:	2b02      	cmp	r3, #2
 8000562:	d82d      	bhi.n	80005c0 <HAL_InitTick+0xac>
 8000564:	68bb      	ldr	r3, [r7, #8]
 8000566:	2b00      	cmp	r3, #0
 8000568:	d003      	beq.n	8000572 <HAL_InitTick+0x5e>
 800056a:	68bb      	ldr	r3, [r7, #8]
 800056c:	2b01      	cmp	r3, #1
 800056e:	d00d      	beq.n	800058c <HAL_InitTick+0x78>
        /* Calculate tick value */
        ticknumber = (LSE_VALUE / (1000UL / (uint32_t)uwTickFreq));
        break;
      default:
        /* Nothing to do */
        break;
 8000570:	e026      	b.n	80005c0 <HAL_InitTick+0xac>
        ticknumber = (SystemCoreClock / (8000UL / (uint32_t)uwTickFreq));
 8000572:	4b21      	ldr	r3, [pc, #132]	@ (80005f8 <HAL_InitTick+0xe4>)
 8000574:	681a      	ldr	r2, [r3, #0]
 8000576:	4b1e      	ldr	r3, [pc, #120]	@ (80005f0 <HAL_InitTick+0xdc>)
 8000578:	781b      	ldrb	r3, [r3, #0]
 800057a:	4619      	mov	r1, r3
 800057c:	f44f 53fa 	mov.w	r3, #8000	@ 0x1f40
 8000580:	fbb3 f3f1 	udiv	r3, r3, r1
 8000584:	fbb2 f3f3 	udiv	r3, r2, r3
 8000588:	60fb      	str	r3, [r7, #12]
        break;
 800058a:	e01a      	b.n	80005c2 <HAL_InitTick+0xae>
        ticknumber = (LSI_VALUE / (1000UL / (uint32_t)uwTickFreq));
 800058c:	4b18      	ldr	r3, [pc, #96]	@ (80005f0 <HAL_InitTick+0xdc>)
 800058e:	781b      	ldrb	r3, [r3, #0]
 8000590:	461a      	mov	r2, r3
 8000592:	f44f 737a 	mov.w	r3, #1000	@ 0x3e8
 8000596:	fbb3 f3f2 	udiv	r3, r3, r2
 800059a:	f44f 42fa 	mov.w	r2, #32000	@ 0x7d00
 800059e:	fbb2 f3f3 	udiv	r3, r2, r3
 80005a2:	60fb      	str	r3, [r7, #12]
        break;
 80005a4:	e00d      	b.n	80005c2 <HAL_InitTick+0xae>
        ticknumber = (LSE_VALUE / (1000UL / (uint32_t)uwTickFreq));
 80005a6:	4b12      	ldr	r3, [pc, #72]	@ (80005f0 <HAL_InitTick+0xdc>)
 80005a8:	781b      	ldrb	r3, [r3, #0]
 80005aa:	461a      	mov	r2, r3
 80005ac:	f44f 737a 	mov.w	r3, #1000	@ 0x3e8
 80005b0:	fbb3 f3f2 	udiv	r3, r3, r2
 80005b4:	f44f 4200 	mov.w	r2, #32768	@ 0x8000
 80005b8:	fbb2 f3f3 	udiv	r3, r2, r3
 80005bc:	60fb      	str	r3, [r7, #12]
        break;
 80005be:	e000      	b.n	80005c2 <HAL_InitTick+0xae>
        break;
 80005c0:	bf00      	nop
    }
  }

  /* Configure the SysTick to have interrupt in 1ms time basis*/
  if (HAL_SYSTICK_Config(ticknumber) > 0U)
 80005c2:	68f8      	ldr	r0, [r7, #12]
 80005c4:	f000 f8f0 	bl	80007a8 <HAL_SYSTICK_Config>
 80005c8:	4603      	mov	r3, r0
 80005ca:	2b00      	cmp	r3, #0
 80005cc:	d001      	beq.n	80005d2 <HAL_InitTick+0xbe>
  {
    return HAL_ERROR;
 80005ce:	2301      	movs	r3, #1
 80005d0:	e009      	b.n	80005e6 <HAL_InitTick+0xd2>
  }

  /* Configure the SysTick IRQ priority */
  HAL_NVIC_SetPriority(SysTick_IRQn, TickPriority, 0U);
 80005d2:	2200      	movs	r2, #0
 80005d4:	6879      	ldr	r1, [r7, #4]
 80005d6:	f04f 30ff 	mov.w	r0, #4294967295
 80005da:	f000 f8cb 	bl	8000774 <HAL_NVIC_SetPriority>
  uwTickPrio = TickPriority;
 80005de:	4a07      	ldr	r2, [pc, #28]	@ (80005fc <HAL_InitTick+0xe8>)
 80005e0:	687b      	ldr	r3, [r7, #4]
 80005e2:	6013      	str	r3, [r2, #0]

  /* Return function status */
  return HAL_OK;
 80005e4:	2300      	movs	r3, #0
}
 80005e6:	4618      	mov	r0, r3
 80005e8:	3710      	adds	r7, #16
 80005ea:	46bd      	mov	sp, r7
 80005ec:	bd80      	pop	{r7, pc}
 80005ee:	bf00      	nop
 80005f0:	20000004 	.word	0x20000004
 80005f4:	e000e010 	.word	0xe000e010
 80005f8:	20000008 	.word	0x20000008
 80005fc:	20000000 	.word	0x20000000

08000600 <HAL_IncTick>:
  * @note This function is declared as __weak to be overwritten in case of other
  *      implementations in user file.
  * @retval None
  */
__weak void HAL_IncTick(void)
{
 8000600:	b480      	push	{r7}
 8000602:	af00      	add	r7, sp, #0
  uwTick += (uint32_t)uwTickFreq;
 8000604:	4b06      	ldr	r3, [pc, #24]	@ (8000620 <HAL_IncTick+0x20>)
 8000606:	781b      	ldrb	r3, [r3, #0]
 8000608:	461a      	mov	r2, r3
 800060a:	4b06      	ldr	r3, [pc, #24]	@ (8000624 <HAL_IncTick+0x24>)
 800060c:	681b      	ldr	r3, [r3, #0]
 800060e:	4413      	add	r3, r2
 8000610:	4a04      	ldr	r2, [pc, #16]	@ (8000624 <HAL_IncTick+0x24>)
 8000612:	6013      	str	r3, [r2, #0]
}
 8000614:	bf00      	nop
 8000616:	46bd      	mov	sp, r7
 8000618:	f85d 7b04 	ldr.w	r7, [sp], #4
 800061c:	4770      	bx	lr
 800061e:	bf00      	nop
 8000620:	20000004 	.word	0x20000004
 8000624:	20000084 	.word	0x20000084

08000628 <HAL_GetTick>:
  * @note This function is declared as __weak to be overwritten in case of other
  *       implementations in user file.
  * @retval tick value
  */
__weak uint32_t HAL_GetTick(void)
{
 8000628:	b480      	push	{r7}
 800062a:	af00      	add	r7, sp, #0
  return uwTick;
 800062c:	4b03      	ldr	r3, [pc, #12]	@ (800063c <HAL_GetTick+0x14>)
 800062e:	681b      	ldr	r3, [r3, #0]
}
 8000630:	4618      	mov	r0, r3
 8000632:	46bd      	mov	sp, r7
 8000634:	f85d 7b04 	ldr.w	r7, [sp], #4
 8000638:	4770      	bx	lr
 800063a:	bf00      	nop
 800063c:	20000084 	.word	0x20000084

08000640 <__NVIC_SetPriorityGrouping>:
           In case of a conflict between priority grouping and available
           priority bits (__NVIC_PRIO_BITS), the smallest possible priority group is set.
  \param [in]      PriorityGroup  Priority grouping field.
 */
__STATIC_INLINE void __NVIC_SetPriorityGrouping(uint32_t PriorityGroup)
{
 8000640:	b480      	push	{r7}
 8000642:	b085      	sub	sp, #20
 8000644:	af00      	add	r7, sp, #0
 8000646:	6078      	str	r0, [r7, #4]
  uint32_t reg_value;
  uint32_t PriorityGroupTmp = (PriorityGroup & (uint32_t)0x07UL);             /* only values 0..7 are used          */
 8000648:	687b      	ldr	r3, [r7, #4]
 800064a:	f003 0307 	and.w	r3, r3, #7
 800064e:	60fb      	str	r3, [r7, #12]

  reg_value  =  SCB->AIRCR;                                                   /* read old register configuration    */
 8000650:	4b0c      	ldr	r3, [pc, #48]	@ (8000684 <__NVIC_SetPriorityGrouping+0x44>)
 8000652:	68db      	ldr	r3, [r3, #12]
 8000654:	60bb      	str	r3, [r7, #8]
  reg_value &= ~((uint32_t)(SCB_AIRCR_VECTKEY_Msk | SCB_AIRCR_PRIGROUP_Msk)); /* clear bits to change               */
 8000656:	68ba      	ldr	r2, [r7, #8]
 8000658:	f64f 03ff 	movw	r3, #63743	@ 0xf8ff
 800065c:	4013      	ands	r3, r2
 800065e:	60bb      	str	r3, [r7, #8]
  reg_value  =  (reg_value                                   |
                ((uint32_t)0x5FAUL << SCB_AIRCR_VECTKEY_Pos) |
                (PriorityGroupTmp << SCB_AIRCR_PRIGROUP_Pos)  );              /* Insert write key and priority group */
 8000660:	68fb      	ldr	r3, [r7, #12]
 8000662:	021a      	lsls	r2, r3, #8
                ((uint32_t)0x5FAUL << SCB_AIRCR_VECTKEY_Pos) |
 8000664:	68bb      	ldr	r3, [r7, #8]
 8000666:	4313      	orrs	r3, r2
  reg_value  =  (reg_value                                   |
 8000668:	f043 63bf 	orr.w	r3, r3, #100139008	@ 0x5f80000
 800066c:	f443 3300 	orr.w	r3, r3, #131072	@ 0x20000
 8000670:	60bb      	str	r3, [r7, #8]
  SCB->AIRCR =  reg_value;
 8000672:	4a04      	ldr	r2, [pc, #16]	@ (8000684 <__NVIC_SetPriorityGrouping+0x44>)
 8000674:	68bb      	ldr	r3, [r7, #8]
 8000676:	60d3      	str	r3, [r2, #12]
}
 8000678:	bf00      	nop
 800067a:	3714      	adds	r7, #20
 800067c:	46bd      	mov	sp, r7
 800067e:	f85d 7b04 	ldr.w	r7, [sp], #4
 8000682:	4770      	bx	lr
 8000684:	e000ed00 	.word	0xe000ed00

08000688 <__NVIC_GetPriorityGrouping>:
  \brief   Get Priority Grouping
  \details Reads the priority grouping field from the NVIC Interrupt Controller.
  \return                Priority grouping field (SCB->AIRCR [10:8] PRIGROUP field).
 */
__STATIC_INLINE uint32_t __NVIC_GetPriorityGrouping(void)
{
 8000688:	b480      	push	{r7}
 800068a:	af00      	add	r7, sp, #0
  return ((uint32_t)((SCB->AIRCR & SCB_AIRCR_PRIGROUP_Msk) >> SCB_AIRCR_PRIGROUP_Pos));
 800068c:	4b04      	ldr	r3, [pc, #16]	@ (80006a0 <__NVIC_GetPriorityGrouping+0x18>)
 800068e:	68db      	ldr	r3, [r3, #12]
 8000690:	0a1b      	lsrs	r3, r3, #8
 8000692:	f003 0307 	and.w	r3, r3, #7
}
 8000696:	4618      	mov	r0, r3
 8000698:	46bd      	mov	sp, r7
 800069a:	f85d 7b04 	ldr.w	r7, [sp], #4
 800069e:	4770      	bx	lr
 80006a0:	e000ed00 	.word	0xe000ed00

080006a4 <__NVIC_SetPriority>:
  \param [in]      IRQn  Interrupt number.
  \param [in]  priority  Priority to set.
  \note    The priority cannot be set for every processor exception.
 */
__STATIC_INLINE void __NVIC_SetPriority(IRQn_Type IRQn, uint32_t priority)
{
 80006a4:	b480      	push	{r7}
 80006a6:	b083      	sub	sp, #12
 80006a8:	af00      	add	r7, sp, #0
 80006aa:	4603      	mov	r3, r0
 80006ac:	6039      	str	r1, [r7, #0]
 80006ae:	80fb      	strh	r3, [r7, #6]
  if ((int32_t)(IRQn) >= 0)
 80006b0:	f9b7 3006 	ldrsh.w	r3, [r7, #6]
 80006b4:	2b00      	cmp	r3, #0
 80006b6:	db0a      	blt.n	80006ce <__NVIC_SetPriority+0x2a>
  {
    NVIC->IPR[((uint32_t)IRQn)]               = (uint8_t)((priority << (8U - __NVIC_PRIO_BITS)) & (uint32_t)0xFFUL);
 80006b8:	683b      	ldr	r3, [r7, #0]
 80006ba:	b2da      	uxtb	r2, r3
 80006bc:	490c      	ldr	r1, [pc, #48]	@ (80006f0 <__NVIC_SetPriority+0x4c>)
 80006be:	f9b7 3006 	ldrsh.w	r3, [r7, #6]
 80006c2:	0112      	lsls	r2, r2, #4
 80006c4:	b2d2      	uxtb	r2, r2
 80006c6:	440b      	add	r3, r1
 80006c8:	f883 2300 	strb.w	r2, [r3, #768]	@ 0x300
  }
  else
  {
    SCB->SHPR[(((uint32_t)IRQn) & 0xFUL)-4UL] = (uint8_t)((priority << (8U - __NVIC_PRIO_BITS)) & (uint32_t)0xFFUL);
  }
}
 80006cc:	e00a      	b.n	80006e4 <__NVIC_SetPriority+0x40>
    SCB->SHPR[(((uint32_t)IRQn) & 0xFUL)-4UL] = (uint8_t)((priority << (8U - __NVIC_PRIO_BITS)) & (uint32_t)0xFFUL);
 80006ce:	683b      	ldr	r3, [r7, #0]
 80006d0:	b2da      	uxtb	r2, r3
 80006d2:	4908      	ldr	r1, [pc, #32]	@ (80006f4 <__NVIC_SetPriority+0x50>)
 80006d4:	88fb      	ldrh	r3, [r7, #6]
 80006d6:	f003 030f 	and.w	r3, r3, #15
 80006da:	3b04      	subs	r3, #4
 80006dc:	0112      	lsls	r2, r2, #4
 80006de:	b2d2      	uxtb	r2, r2
 80006e0:	440b      	add	r3, r1
 80006e2:	761a      	strb	r2, [r3, #24]
}
 80006e4:	bf00      	nop
 80006e6:	370c      	adds	r7, #12
 80006e8:	46bd      	mov	sp, r7
 80006ea:	f85d 7b04 	ldr.w	r7, [sp], #4
 80006ee:	4770      	bx	lr
 80006f0:	e000e100 	.word	0xe000e100
 80006f4:	e000ed00 	.word	0xe000ed00

080006f8 <NVIC_EncodePriority>:
  \param [in]   PreemptPriority  Preemptive priority value (starting from 0).
  \param [in]       SubPriority  Subpriority value (starting from 0).
  \return                        Encoded priority. Value can be used in the function \ref NVIC_SetPriority().
 */
__STATIC_INLINE uint32_t NVIC_EncodePriority (uint32_t PriorityGroup, uint32_t PreemptPriority, uint32_t SubPriority)
{
 80006f8:	b480      	push	{r7}
 80006fa:	b089      	sub	sp, #36	@ 0x24
 80006fc:	af00      	add	r7, sp, #0
 80006fe:	60f8      	str	r0, [r7, #12]
 8000700:	60b9      	str	r1, [r7, #8]
 8000702:	607a      	str	r2, [r7, #4]
  uint32_t PriorityGroupTmp = (PriorityGroup & (uint32_t)0x07UL);   /* only values 0..7 are used          */
 8000704:	68fb      	ldr	r3, [r7, #12]
 8000706:	f003 0307 	and.w	r3, r3, #7
 800070a:	61fb      	str	r3, [r7, #28]
  uint32_t PreemptPriorityBits;
  uint32_t SubPriorityBits;

  PreemptPriorityBits = ((7UL - PriorityGroupTmp) > (uint32_t)(__NVIC_PRIO_BITS)) ? (uint32_t)(__NVIC_PRIO_BITS) : (uint32_t)(7UL - PriorityGroupTmp);
 800070c:	69fb      	ldr	r3, [r7, #28]
 800070e:	f1c3 0307 	rsb	r3, r3, #7
 8000712:	2b04      	cmp	r3, #4
 8000714:	bf28      	it	cs
 8000716:	2304      	movcs	r3, #4
 8000718:	61bb      	str	r3, [r7, #24]
  SubPriorityBits     = ((PriorityGroupTmp + (uint32_t)(__NVIC_PRIO_BITS)) < (uint32_t)7UL) ? (uint32_t)0UL : (uint32_t)((PriorityGroupTmp - 7UL) + (uint32_t)(__NVIC_PRIO_BITS));
 800071a:	69fb      	ldr	r3, [r7, #28]
 800071c:	3304      	adds	r3, #4
 800071e:	2b06      	cmp	r3, #6
 8000720:	d902      	bls.n	8000728 <NVIC_EncodePriority+0x30>
 8000722:	69fb      	ldr	r3, [r7, #28]
 8000724:	3b03      	subs	r3, #3
 8000726:	e000      	b.n	800072a <NVIC_EncodePriority+0x32>
 8000728:	2300      	movs	r3, #0
 800072a:	617b      	str	r3, [r7, #20]

  return (
           ((PreemptPriority & (uint32_t)((1UL << (PreemptPriorityBits)) - 1UL)) << SubPriorityBits) |
 800072c:	f04f 32ff 	mov.w	r2, #4294967295
 8000730:	69bb      	ldr	r3, [r7, #24]
 8000732:	fa02 f303 	lsl.w	r3, r2, r3
 8000736:	43da      	mvns	r2, r3
 8000738:	68bb      	ldr	r3, [r7, #8]
 800073a:	401a      	ands	r2, r3
 800073c:	697b      	ldr	r3, [r7, #20]
 800073e:	409a      	lsls	r2, r3
           ((SubPriority     & (uint32_t)((1UL << (SubPriorityBits    )) - 1UL)))
 8000740:	f04f 31ff 	mov.w	r1, #4294967295
 8000744:	697b      	ldr	r3, [r7, #20]
 8000746:	fa01 f303 	lsl.w	r3, r1, r3
 800074a:	43d9      	mvns	r1, r3
 800074c:	687b      	ldr	r3, [r7, #4]
 800074e:	400b      	ands	r3, r1
           ((PreemptPriority & (uint32_t)((1UL << (PreemptPriorityBits)) - 1UL)) << SubPriorityBits) |
 8000750:	4313      	orrs	r3, r2
         );
}
 8000752:	4618      	mov	r0, r3
 8000754:	3724      	adds	r7, #36	@ 0x24
 8000756:	46bd      	mov	sp, r7
 8000758:	f85d 7b04 	ldr.w	r7, [sp], #4
 800075c:	4770      	bx	lr

0800075e <HAL_NVIC_SetPriorityGrouping>:
  * @note   When the NVIC_PriorityGroup_0 is selected, IRQ pre-emption is no more possible.
  *         The pending IRQ priority will be managed only by the subpriority.
  * @retval None
  */
void HAL_NVIC_SetPriorityGrouping(uint32_t PriorityGroup)
{
 800075e:	b580      	push	{r7, lr}
 8000760:	b082      	sub	sp, #8
 8000762:	af00      	add	r7, sp, #0
 8000764:	6078      	str	r0, [r7, #4]
  /* Check the parameters */
  assert_param(IS_NVIC_PRIORITY_GROUP(PriorityGroup));

  /* Set the PRIGROUP[10:8] bits according to the PriorityGroup parameter value */
  NVIC_SetPriorityGrouping(PriorityGroup);
 8000766:	6878      	ldr	r0, [r7, #4]
 8000768:	f7ff ff6a 	bl	8000640 <__NVIC_SetPriorityGrouping>
}
 800076c:	bf00      	nop
 800076e:	3708      	adds	r7, #8
 8000770:	46bd      	mov	sp, r7
 8000772:	bd80      	pop	{r7, pc}

08000774 <HAL_NVIC_SetPriority>:
  *         This parameter can be a value between 0 and 15
  *         A lower priority value indicates a higher priority.
  * @retval None
  */
void HAL_NVIC_SetPriority(IRQn_Type IRQn, uint32_t PreemptPriority, uint32_t SubPriority)
{
 8000774:	b580      	push	{r7, lr}
 8000776:	b086      	sub	sp, #24
 8000778:	af00      	add	r7, sp, #0
 800077a:	4603      	mov	r3, r0
 800077c:	60b9      	str	r1, [r7, #8]
 800077e:	607a      	str	r2, [r7, #4]
 8000780:	81fb      	strh	r3, [r7, #14]

  /* Check the parameters */
  assert_param(IS_NVIC_SUB_PRIORITY(SubPriority));
  assert_param(IS_NVIC_PREEMPTION_PRIORITY(PreemptPriority));

  prioritygroup = NVIC_GetPriorityGrouping();
 8000782:	f7ff ff81 	bl	8000688 <__NVIC_GetPriorityGrouping>
 8000786:	6178      	str	r0, [r7, #20]

  NVIC_SetPriority(IRQn, NVIC_EncodePriority(prioritygroup, PreemptPriority, SubPriority));
 8000788:	687a      	ldr	r2, [r7, #4]
 800078a:	68b9      	ldr	r1, [r7, #8]
 800078c:	6978      	ldr	r0, [r7, #20]
 800078e:	f7ff ffb3 	bl	80006f8 <NVIC_EncodePriority>
 8000792:	4602      	mov	r2, r0
 8000794:	f9b7 300e 	ldrsh.w	r3, [r7, #14]
 8000798:	4611      	mov	r1, r2
 800079a:	4618      	mov	r0, r3
 800079c:	f7ff ff82 	bl	80006a4 <__NVIC_SetPriority>
}
 80007a0:	bf00      	nop
 80007a2:	3718      	adds	r7, #24
 80007a4:	46bd      	mov	sp, r7
 80007a6:	bd80      	pop	{r7, pc}

080007a8 <HAL_SYSTICK_Config>:
  * @param  TicksNumb: Specifies the ticks Number of ticks between two interrupts.
  * @retval status:  - 0  Function succeeded.
  *                  - 1  Function failed.
  */
uint32_t HAL_SYSTICK_Config(uint32_t TicksNumb)
{
 80007a8:	b480      	push	{r7}
 80007aa:	b083      	sub	sp, #12
 80007ac:	af00      	add	r7, sp, #0
 80007ae:	6078      	str	r0, [r7, #4]
  if ((TicksNumb - 1UL) > SysTick_LOAD_RELOAD_Msk)
 80007b0:	687b      	ldr	r3, [r7, #4]
 80007b2:	3b01      	subs	r3, #1
 80007b4:	f1b3 7f80 	cmp.w	r3, #16777216	@ 0x1000000
 80007b8:	d301      	bcc.n	80007be <HAL_SYSTICK_Config+0x16>
  {
    /* Reload value impossible */
    return (1UL);
 80007ba:	2301      	movs	r3, #1
 80007bc:	e00d      	b.n	80007da <HAL_SYSTICK_Config+0x32>
  }

  /* Set reload register */
  WRITE_REG(SysTick->LOAD, (uint32_t)(TicksNumb - 1UL));
 80007be:	4a0a      	ldr	r2, [pc, #40]	@ (80007e8 <HAL_SYSTICK_Config+0x40>)
 80007c0:	687b      	ldr	r3, [r7, #4]
 80007c2:	3b01      	subs	r3, #1
 80007c4:	6053      	str	r3, [r2, #4]

  /* Load the SysTick Counter Value */
  WRITE_REG(SysTick->VAL, 0UL);
 80007c6:	4b08      	ldr	r3, [pc, #32]	@ (80007e8 <HAL_SYSTICK_Config+0x40>)
 80007c8:	2200      	movs	r2, #0
 80007ca:	609a      	str	r2, [r3, #8]

  /* Enable SysTick IRQ and SysTick Timer */
  SET_BIT(SysTick->CTRL, (SysTick_CTRL_TICKINT_Msk | SysTick_CTRL_ENABLE_Msk));
 80007cc:	4b06      	ldr	r3, [pc, #24]	@ (80007e8 <HAL_SYSTICK_Config+0x40>)
 80007ce:	681b      	ldr	r3, [r3, #0]
 80007d0:	4a05      	ldr	r2, [pc, #20]	@ (80007e8 <HAL_SYSTICK_Config+0x40>)
 80007d2:	f043 0303 	orr.w	r3, r3, #3
 80007d6:	6013      	str	r3, [r2, #0]

  /* Function successful */
  return (0UL);
 80007d8:	2300      	movs	r3, #0
}
 80007da:	4618      	mov	r0, r3
 80007dc:	370c      	adds	r7, #12
 80007de:	46bd      	mov	sp, r7
 80007e0:	f85d 7b04 	ldr.w	r7, [sp], #4
 80007e4:	4770      	bx	lr
 80007e6:	bf00      	nop
 80007e8:	e000e010 	.word	0xe000e010

080007ec <HAL_SYSTICK_CLKSourceConfig>:
  *             @arg SYSTICK_CLKSOURCE_HCLK: AHB clock selected as SysTick clock source.
  *             @arg SYSTICK_CLKSOURCE_HCLK_DIV8: AHB clock divided by 8 selected as SysTick clock source.
  * @retval None
  */
void HAL_SYSTICK_CLKSourceConfig(uint32_t CLKSource)
{
 80007ec:	b480      	push	{r7}
 80007ee:	b083      	sub	sp, #12
 80007f0:	af00      	add	r7, sp, #0
 80007f2:	6078      	str	r0, [r7, #4]
  /* Check the parameters */
  assert_param(IS_SYSTICK_CLK_SOURCE(CLKSource));
  switch (CLKSource)
 80007f4:	687b      	ldr	r3, [r7, #4]
 80007f6:	2b04      	cmp	r3, #4
 80007f8:	d844      	bhi.n	8000884 <HAL_SYSTICK_CLKSourceConfig+0x98>
 80007fa:	a201      	add	r2, pc, #4	@ (adr r2, 8000800 <HAL_SYSTICK_CLKSourceConfig+0x14>)
 80007fc:	f852 f023 	ldr.w	pc, [r2, r3, lsl #2]
 8000800:	08000823 	.word	0x08000823
 8000804:	08000841 	.word	0x08000841
 8000808:	08000863 	.word	0x08000863
 800080c:	08000885 	.word	0x08000885
 8000810:	08000815 	.word	0x08000815
  {
    /* Select HCLK as Systick clock source */
    case SYSTICK_CLKSOURCE_HCLK:
      SET_BIT(SysTick->CTRL, SysTick_CTRL_CLKSOURCE_Msk);
 8000814:	4b1f      	ldr	r3, [pc, #124]	@ (8000894 <HAL_SYSTICK_CLKSourceConfig+0xa8>)
 8000816:	681b      	ldr	r3, [r3, #0]
 8000818:	4a1e      	ldr	r2, [pc, #120]	@ (8000894 <HAL_SYSTICK_CLKSourceConfig+0xa8>)
 800081a:	f043 0304 	orr.w	r3, r3, #4
 800081e:	6013      	str	r3, [r2, #0]
      break;
 8000820:	e031      	b.n	8000886 <HAL_SYSTICK_CLKSourceConfig+0x9a>
    /* Select HCLK_DIV8 as Systick clock source */
    case SYSTICK_CLKSOURCE_HCLK_DIV8:
      CLEAR_BIT(SysTick->CTRL, SysTick_CTRL_CLKSOURCE_Msk);
 8000822:	4b1c      	ldr	r3, [pc, #112]	@ (8000894 <HAL_SYSTICK_CLKSourceConfig+0xa8>)
 8000824:	681b      	ldr	r3, [r3, #0]
 8000826:	4a1b      	ldr	r2, [pc, #108]	@ (8000894 <HAL_SYSTICK_CLKSourceConfig+0xa8>)
 8000828:	f023 0304 	bic.w	r3, r3, #4
 800082c:	6013      	str	r3, [r2, #0]
      MODIFY_REG(RCC->CCIPR1, RCC_CCIPR1_SYSTICKSEL, (0x00000000U));
 800082e:	4b1a      	ldr	r3, [pc, #104]	@ (8000898 <HAL_SYSTICK_CLKSourceConfig+0xac>)
 8000830:	f8d3 30e0 	ldr.w	r3, [r3, #224]	@ 0xe0
 8000834:	4a18      	ldr	r2, [pc, #96]	@ (8000898 <HAL_SYSTICK_CLKSourceConfig+0xac>)
 8000836:	f423 0340 	bic.w	r3, r3, #12582912	@ 0xc00000
 800083a:	f8c2 30e0 	str.w	r3, [r2, #224]	@ 0xe0
      break;
 800083e:	e022      	b.n	8000886 <HAL_SYSTICK_CLKSourceConfig+0x9a>
    /* Select LSI as Systick clock source */
    case SYSTICK_CLKSOURCE_LSI:
      CLEAR_BIT(SysTick->CTRL, SysTick_CTRL_CLKSOURCE_Msk);
 8000840:	4b14      	ldr	r3, [pc, #80]	@ (8000894 <HAL_SYSTICK_CLKSourceConfig+0xa8>)
 8000842:	681b      	ldr	r3, [r3, #0]
 8000844:	4a13      	ldr	r2, [pc, #76]	@ (8000894 <HAL_SYSTICK_CLKSourceConfig+0xa8>)
 8000846:	f023 0304 	bic.w	r3, r3, #4
 800084a:	6013      	str	r3, [r2, #0]
      MODIFY_REG(RCC->CCIPR1, RCC_CCIPR1_SYSTICKSEL, RCC_CCIPR1_SYSTICKSEL_0);
 800084c:	4b12      	ldr	r3, [pc, #72]	@ (8000898 <HAL_SYSTICK_CLKSourceConfig+0xac>)
 800084e:	f8d3 30e0 	ldr.w	r3, [r3, #224]	@ 0xe0
 8000852:	f423 0340 	bic.w	r3, r3, #12582912	@ 0xc00000
 8000856:	4a10      	ldr	r2, [pc, #64]	@ (8000898 <HAL_SYSTICK_CLKSourceConfig+0xac>)
 8000858:	f443 0380 	orr.w	r3, r3, #4194304	@ 0x400000
 800085c:	f8c2 30e0 	str.w	r3, [r2, #224]	@ 0xe0
      break;
 8000860:	e011      	b.n	8000886 <HAL_SYSTICK_CLKSourceConfig+0x9a>
    /* Select LSE as Systick clock source */
    case SYSTICK_CLKSOURCE_LSE:
      CLEAR_BIT(SysTick->CTRL, SysTick_CTRL_CLKSOURCE_Msk);
 8000862:	4b0c      	ldr	r3, [pc, #48]	@ (8000894 <HAL_SYSTICK_CLKSourceConfig+0xa8>)
 8000864:	681b      	ldr	r3, [r3, #0]
 8000866:	4a0b      	ldr	r2, [pc, #44]	@ (8000894 <HAL_SYSTICK_CLKSourceConfig+0xa8>)
 8000868:	f023 0304 	bic.w	r3, r3, #4
 800086c:	6013      	str	r3, [r2, #0]
      MODIFY_REG(RCC->CCIPR1, RCC_CCIPR1_SYSTICKSEL, RCC_CCIPR1_SYSTICKSEL_1);
 800086e:	4b0a      	ldr	r3, [pc, #40]	@ (8000898 <HAL_SYSTICK_CLKSourceConfig+0xac>)
 8000870:	f8d3 30e0 	ldr.w	r3, [r3, #224]	@ 0xe0
 8000874:	f423 0340 	bic.w	r3, r3, #12582912	@ 0xc00000
 8000878:	4a07      	ldr	r2, [pc, #28]	@ (8000898 <HAL_SYSTICK_CLKSourceConfig+0xac>)
 800087a:	f443 0300 	orr.w	r3, r3, #8388608	@ 0x800000
 800087e:	f8c2 30e0 	str.w	r3, [r2, #224]	@ 0xe0
      break;
 8000882:	e000      	b.n	8000886 <HAL_SYSTICK_CLKSourceConfig+0x9a>
    default:
      /* Nothing to do */
      break;
 8000884:	bf00      	nop
  }
}
 8000886:	bf00      	nop
 8000888:	370c      	adds	r7, #12
 800088a:	46bd      	mov	sp, r7
 800088c:	f85d 7b04 	ldr.w	r7, [sp], #4
 8000890:	4770      	bx	lr
 8000892:	bf00      	nop
 8000894:	e000e010 	.word	0xe000e010
 8000898:	46020c00 	.word	0x46020c00

0800089c <HAL_SYSTICK_GetCLKSourceConfig>:
  *             @arg SYSTICK_CLKSOURCE_LSE: LSE clock selected as SysTick clock source.
  *             @arg SYSTICK_CLKSOURCE_HCLK: AHB clock selected as SysTick clock source.
  *             @arg SYSTICK_CLKSOURCE_HCLK_DIV8: AHB clock divided by 8 selected as SysTick clock source.
  */
uint32_t HAL_SYSTICK_GetCLKSourceConfig(void)
{
 800089c:	b480      	push	{r7}
 800089e:	b083      	sub	sp, #12
 80008a0:	af00      	add	r7, sp, #0
  uint32_t systick_source;
  uint32_t systick_rcc_source;

  /* Read SysTick->CTRL register for internal or external clock source */
  if (READ_BIT(SysTick->CTRL, SysTick_CTRL_CLKSOURCE_Msk) != 0U)
 80008a2:	4b19      	ldr	r3, [pc, #100]	@ (8000908 <HAL_SYSTICK_GetCLKSourceConfig+0x6c>)
 80008a4:	681b      	ldr	r3, [r3, #0]
 80008a6:	f003 0304 	and.w	r3, r3, #4
 80008aa:	2b00      	cmp	r3, #0
 80008ac:	d002      	beq.n	80008b4 <HAL_SYSTICK_GetCLKSourceConfig+0x18>
  {
    /* Internal clock source */
    systick_source = SYSTICK_CLKSOURCE_HCLK;
 80008ae:	2304      	movs	r3, #4
 80008b0:	607b      	str	r3, [r7, #4]
 80008b2:	e021      	b.n	80008f8 <HAL_SYSTICK_GetCLKSourceConfig+0x5c>
  }
  else
  {
    /* External clock source, check the selected one in RCC */
    systick_rcc_source = READ_BIT(RCC->CCIPR1, RCC_CCIPR1_SYSTICKSEL);
 80008b4:	4b15      	ldr	r3, [pc, #84]	@ (800090c <HAL_SYSTICK_GetCLKSourceConfig+0x70>)
 80008b6:	f8d3 30e0 	ldr.w	r3, [r3, #224]	@ 0xe0
 80008ba:	f403 0340 	and.w	r3, r3, #12582912	@ 0xc00000
 80008be:	603b      	str	r3, [r7, #0]

    switch (systick_rcc_source)
 80008c0:	683b      	ldr	r3, [r7, #0]
 80008c2:	f5b3 0f00 	cmp.w	r3, #8388608	@ 0x800000
 80008c6:	d011      	beq.n	80008ec <HAL_SYSTICK_GetCLKSourceConfig+0x50>
 80008c8:	683b      	ldr	r3, [r7, #0]
 80008ca:	f5b3 0f00 	cmp.w	r3, #8388608	@ 0x800000
 80008ce:	d810      	bhi.n	80008f2 <HAL_SYSTICK_GetCLKSourceConfig+0x56>
 80008d0:	683b      	ldr	r3, [r7, #0]
 80008d2:	2b00      	cmp	r3, #0
 80008d4:	d004      	beq.n	80008e0 <HAL_SYSTICK_GetCLKSourceConfig+0x44>
 80008d6:	683b      	ldr	r3, [r7, #0]
 80008d8:	f5b3 0f80 	cmp.w	r3, #4194304	@ 0x400000
 80008dc:	d003      	beq.n	80008e6 <HAL_SYSTICK_GetCLKSourceConfig+0x4a>
 80008de:	e008      	b.n	80008f2 <HAL_SYSTICK_GetCLKSourceConfig+0x56>
    {
      case (0x00000000U):
        systick_source = SYSTICK_CLKSOURCE_HCLK_DIV8;
 80008e0:	2300      	movs	r3, #0
 80008e2:	607b      	str	r3, [r7, #4]
        break;
 80008e4:	e008      	b.n	80008f8 <HAL_SYSTICK_GetCLKSourceConfig+0x5c>

      case (RCC_CCIPR1_SYSTICKSEL_0):
        systick_source = SYSTICK_CLKSOURCE_LSI;
 80008e6:	2301      	movs	r3, #1
 80008e8:	607b      	str	r3, [r7, #4]
        break;
 80008ea:	e005      	b.n	80008f8 <HAL_SYSTICK_GetCLKSourceConfig+0x5c>

      case (RCC_CCIPR1_SYSTICKSEL_1):
        systick_source = SYSTICK_CLKSOURCE_LSE;
 80008ec:	2302      	movs	r3, #2
 80008ee:	607b      	str	r3, [r7, #4]
        break;
 80008f0:	e002      	b.n	80008f8 <HAL_SYSTICK_GetCLKSourceConfig+0x5c>

      default:
        systick_source = SYSTICK_CLKSOURCE_HCLK_DIV8;
 80008f2:	2300      	movs	r3, #0
 80008f4:	607b      	str	r3, [r7, #4]
        break;
 80008f6:	bf00      	nop
    }
  }
  return systick_source;
 80008f8:	687b      	ldr	r3, [r7, #4]
}
 80008fa:	4618      	mov	r0, r3
 80008fc:	370c      	adds	r7, #12
 80008fe:	46bd      	mov	sp, r7
 8000900:	f85d 7b04 	ldr.w	r7, [sp], #4
 8000904:	4770      	bx	lr
 8000906:	bf00      	nop
 8000908:	e000e010 	.word	0xe000e010
 800090c:	46020c00 	.word	0x46020c00

08000910 <HAL_GPIO_Init>:
  * @param  pGPIO_Init: pointer to a GPIO_InitTypeDef structure that contains
  *         the configuration information for the specified GPIO peripheral.
  * @retval None
  */
void HAL_GPIO_Init(GPIO_TypeDef  *GPIOx, const GPIO_InitTypeDef *pGPIO_Init)
{
 8000910:	b480      	push	{r7}
 8000912:	b089      	sub	sp, #36	@ 0x24
 8000914:	af00      	add	r7, sp, #0
 8000916:	6078      	str	r0, [r7, #4]
 8000918:	6039      	str	r1, [r7, #0]
  uint32_t tmp;
  uint32_t iocurrent;
  uint32_t pin_position;
  uint32_t position = 0U;
 800091a:	2300      	movs	r3, #0
 800091c:	617b      	str	r3, [r7, #20]
  assert_param(IS_GPIO_ALL_INSTANCE(GPIOx));
  assert_param(IS_GPIO_PIN(pGPIO_Init->Pin));
  assert_param(IS_GPIO_MODE(pGPIO_Init->Mode));

  /* Save GPIO port address */
  p_gpio = GPIOx;
 800091e:	687b      	ldr	r3, [r7, #4]
 8000920:	613b      	str	r3, [r7, #16]

  /* Configure the port pins */
  while (((pGPIO_Init->Pin) >> position) != 0U)
 8000922:	e1c2      	b.n	8000caa <HAL_GPIO_Init+0x39a>
  {
    /* Get current io position */
    iocurrent = (pGPIO_Init->Pin) & (1UL << position);
 8000924:	683b      	ldr	r3, [r7, #0]
 8000926:	681a      	ldr	r2, [r3, #0]
 8000928:	2101      	movs	r1, #1
 800092a:	697b      	ldr	r3, [r7, #20]
 800092c:	fa01 f303 	lsl.w	r3, r1, r3
 8000930:	4013      	ands	r3, r2
 8000932:	60fb      	str	r3, [r7, #12]

    /* Save Pin Position */
    pin_position = position;
 8000934:	697b      	ldr	r3, [r7, #20]
 8000936:	61bb      	str	r3, [r7, #24]

    if (iocurrent != 0U)
 8000938:	68fb      	ldr	r3, [r7, #12]
 800093a:	2b00      	cmp	r3, #0
 800093c:	f000 81b2 	beq.w	8000ca4 <HAL_GPIO_Init+0x394>
    {
      /*--------------------- GPIO Mode Configuration ------------------------*/
      /* In case of Alternate function mode selection */
      if (GPIOx == LPGPIO1)
 8000940:	687b      	ldr	r3, [r7, #4]
 8000942:	4a55      	ldr	r2, [pc, #340]	@ (8000a98 <HAL_GPIO_Init+0x188>)
 8000944:	4293      	cmp	r3, r2
 8000946:	d15d      	bne.n	8000a04 <HAL_GPIO_Init+0xf4>
      {
        /* MODER configuration */
        tmp = GPIOx->MODER;
 8000948:	687b      	ldr	r3, [r7, #4]
 800094a:	681b      	ldr	r3, [r3, #0]
 800094c:	61fb      	str	r3, [r7, #28]
        tmp &= ~(LPGPIO_MODER_MOD0 << position);
 800094e:	2201      	movs	r2, #1
 8000950:	697b      	ldr	r3, [r7, #20]
 8000952:	fa02 f303 	lsl.w	r3, r2, r3
 8000956:	43db      	mvns	r3, r3
 8000958:	69fa      	ldr	r2, [r7, #28]
 800095a:	4013      	ands	r3, r2
 800095c:	61fb      	str	r3, [r7, #28]
        tmp |= ((pGPIO_Init->Mode & GPIO_MODE_OUTPUT_PP) << position);
 800095e:	683b      	ldr	r3, [r7, #0]
 8000960:	685b      	ldr	r3, [r3, #4]
 8000962:	f003 0201 	and.w	r2, r3, #1
 8000966:	697b      	ldr	r3, [r7, #20]
 8000968:	fa02 f303 	lsl.w	r3, r2, r3
 800096c:	69fa      	ldr	r2, [r7, #28]
 800096e:	4313      	orrs	r3, r2
 8000970:	61fb      	str	r3, [r7, #28]
        GPIOx->MODER = tmp;
 8000972:	687b      	ldr	r3, [r7, #4]
 8000974:	69fa      	ldr	r2, [r7, #28]
 8000976:	601a      	str	r2, [r3, #0]

        /* Save GPIO Port and pin index */
        p_gpio = LPGPIO_Map[position].GPIO_PORT;
 8000978:	4a48      	ldr	r2, [pc, #288]	@ (8000a9c <HAL_GPIO_Init+0x18c>)
 800097a:	697b      	ldr	r3, [r7, #20]
 800097c:	f852 3033 	ldr.w	r3, [r2, r3, lsl #3]
 8000980:	613b      	str	r3, [r7, #16]
        pin_position = LPGPIO_Map[position].Pin_Pos;
 8000982:	4a46      	ldr	r2, [pc, #280]	@ (8000a9c <HAL_GPIO_Init+0x18c>)
 8000984:	697b      	ldr	r3, [r7, #20]
 8000986:	00db      	lsls	r3, r3, #3
 8000988:	4413      	add	r3, r2
 800098a:	685b      	ldr	r3, [r3, #4]
 800098c:	61bb      	str	r3, [r7, #24]

        /* Configure Alternate function mapped with the current IO */
        tmp = p_gpio->AFR[(pin_position) >> 3U];
 800098e:	69bb      	ldr	r3, [r7, #24]
 8000990:	08da      	lsrs	r2, r3, #3
 8000992:	693b      	ldr	r3, [r7, #16]
 8000994:	3208      	adds	r2, #8
 8000996:	f853 3022 	ldr.w	r3, [r3, r2, lsl #2]
 800099a:	61fb      	str	r3, [r7, #28]
        tmp &= ~(0x0FUL << (((pin_position) & 0x07U) * 4U));
 800099c:	69bb      	ldr	r3, [r7, #24]
 800099e:	f003 0307 	and.w	r3, r3, #7
 80009a2:	009b      	lsls	r3, r3, #2
 80009a4:	220f      	movs	r2, #15
 80009a6:	fa02 f303 	lsl.w	r3, r2, r3
 80009aa:	43db      	mvns	r3, r3
 80009ac:	69fa      	ldr	r2, [r7, #28]
 80009ae:	4013      	ands	r3, r2
 80009b0:	61fb      	str	r3, [r7, #28]
        tmp |= ((GPIO_AF11_LPGPIO1 & 0x0FUL) << (((pin_position) & 0x07U) * 4U));
 80009b2:	69bb      	ldr	r3, [r7, #24]
 80009b4:	f003 0307 	and.w	r3, r3, #7
 80009b8:	009b      	lsls	r3, r3, #2
 80009ba:	220b      	movs	r2, #11
 80009bc:	fa02 f303 	lsl.w	r3, r2, r3
 80009c0:	69fa      	ldr	r2, [r7, #28]
 80009c2:	4313      	orrs	r3, r2
 80009c4:	61fb      	str	r3, [r7, #28]
        p_gpio->AFR[(pin_position) >> 3U] = tmp;
 80009c6:	69bb      	ldr	r3, [r7, #24]
 80009c8:	08da      	lsrs	r2, r3, #3
 80009ca:	693b      	ldr	r3, [r7, #16]
 80009cc:	3208      	adds	r2, #8
 80009ce:	69f9      	ldr	r1, [r7, #28]
 80009d0:	f843 1022 	str.w	r1, [r3, r2, lsl #2]

        /* Configure IO Direction mode (Alternate) */
        tmp = p_gpio->MODER;
 80009d4:	693b      	ldr	r3, [r7, #16]
 80009d6:	681b      	ldr	r3, [r3, #0]
 80009d8:	61fb      	str	r3, [r7, #28]
        tmp &= ~(GPIO_MODER_MODE0 << (pin_position * GPIO_MODER_MODE1_Pos));
 80009da:	69bb      	ldr	r3, [r7, #24]
 80009dc:	005b      	lsls	r3, r3, #1
 80009de:	2203      	movs	r2, #3
 80009e0:	fa02 f303 	lsl.w	r3, r2, r3
 80009e4:	43db      	mvns	r3, r3
 80009e6:	69fa      	ldr	r2, [r7, #28]
 80009e8:	4013      	ands	r3, r2
 80009ea:	61fb      	str	r3, [r7, #28]
        tmp |= ((GPIO_MODE_AF_PP & 0x0FUL) << (pin_position * GPIO_MODER_MODE1_Pos));
 80009ec:	69bb      	ldr	r3, [r7, #24]
 80009ee:	005b      	lsls	r3, r3, #1
 80009f0:	2202      	movs	r2, #2
 80009f2:	fa02 f303 	lsl.w	r3, r2, r3
 80009f6:	69fa      	ldr	r2, [r7, #28]
 80009f8:	4313      	orrs	r3, r2
 80009fa:	61fb      	str	r3, [r7, #28]
        p_gpio->MODER = tmp;
 80009fc:	693b      	ldr	r3, [r7, #16]
 80009fe:	69fa      	ldr	r2, [r7, #28]
 8000a00:	601a      	str	r2, [r3, #0]
 8000a02:	e067      	b.n	8000ad4 <HAL_GPIO_Init+0x1c4>
      }
      else if ((pGPIO_Init->Mode == GPIO_MODE_AF_PP) || (pGPIO_Init->Mode == GPIO_MODE_AF_OD))
 8000a04:	683b      	ldr	r3, [r7, #0]
 8000a06:	685b      	ldr	r3, [r3, #4]
 8000a08:	2b02      	cmp	r3, #2
 8000a0a:	d003      	beq.n	8000a14 <HAL_GPIO_Init+0x104>
 8000a0c:	683b      	ldr	r3, [r7, #0]
 8000a0e:	685b      	ldr	r3, [r3, #4]
 8000a10:	2b12      	cmp	r3, #18
 8000a12:	d145      	bne.n	8000aa0 <HAL_GPIO_Init+0x190>
        assert_param(IS_GPIO_ALL_INSTANCE(GPIOx));
        assert_param(IS_GPIO_AF_INSTANCE(GPIOx));
        assert_param(IS_GPIO_AF(pGPIO_Init->Alternate));

        /* Configure Alternate function mapped with the current IO */
        tmp = GPIOx->AFR[position >> 3U];
 8000a14:	697b      	ldr	r3, [r7, #20]
 8000a16:	08da      	lsrs	r2, r3, #3
 8000a18:	687b      	ldr	r3, [r7, #4]
 8000a1a:	3208      	adds	r2, #8
 8000a1c:	f853 3022 	ldr.w	r3, [r3, r2, lsl #2]
 8000a20:	61fb      	str	r3, [r7, #28]
        tmp &= ~(0x0FUL << ((position & 0x07U) * GPIO_AFRL_AFSEL1_Pos));
 8000a22:	697b      	ldr	r3, [r7, #20]
 8000a24:	f003 0307 	and.w	r3, r3, #7
 8000a28:	009b      	lsls	r3, r3, #2
 8000a2a:	220f      	movs	r2, #15
 8000a2c:	fa02 f303 	lsl.w	r3, r2, r3
 8000a30:	43db      	mvns	r3, r3
 8000a32:	69fa      	ldr	r2, [r7, #28]
 8000a34:	4013      	ands	r3, r2
 8000a36:	61fb      	str	r3, [r7, #28]
        tmp |= ((pGPIO_Init->Alternate & 0x0FUL) << ((position & 0x07U) * GPIO_AFRL_AFSEL1_Pos));
 8000a38:	683b      	ldr	r3, [r7, #0]
 8000a3a:	691b      	ldr	r3, [r3, #16]
 8000a3c:	f003 020f 	and.w	r2, r3, #15
 8000a40:	697b      	ldr	r3, [r7, #20]
 8000a42:	f003 0307 	and.w	r3, r3, #7
 8000a46:	009b      	lsls	r3, r3, #2
 8000a48:	fa02 f303 	lsl.w	r3, r2, r3
 8000a4c:	69fa      	ldr	r2, [r7, #28]
 8000a4e:	4313      	orrs	r3, r2
 8000a50:	61fb      	str	r3, [r7, #28]
        GPIOx->AFR[position >> 3U] = tmp;
 8000a52:	697b      	ldr	r3, [r7, #20]
 8000a54:	08da      	lsrs	r2, r3, #3
 8000a56:	687b      	ldr	r3, [r7, #4]
 8000a58:	3208      	adds	r2, #8
 8000a5a:	69f9      	ldr	r1, [r7, #28]
 8000a5c:	f843 1022 	str.w	r1, [r3, r2, lsl #2]

        /* Configure IO Direction mode (Alternate) */
        tmp = p_gpio->MODER;
 8000a60:	693b      	ldr	r3, [r7, #16]
 8000a62:	681b      	ldr	r3, [r3, #0]
 8000a64:	61fb      	str	r3, [r7, #28]
        tmp &= ~(GPIO_MODER_MODE0 << (pin_position * GPIO_MODER_MODE1_Pos));
 8000a66:	69bb      	ldr	r3, [r7, #24]
 8000a68:	005b      	lsls	r3, r3, #1
 8000a6a:	2203      	movs	r2, #3
 8000a6c:	fa02 f303 	lsl.w	r3, r2, r3
 8000a70:	43db      	mvns	r3, r3
 8000a72:	69fa      	ldr	r2, [r7, #28]
 8000a74:	4013      	ands	r3, r2
 8000a76:	61fb      	str	r3, [r7, #28]
        tmp |= ((pGPIO_Init->Mode & GPIO_MODE) << (pin_position * GPIO_MODER_MODE1_Pos));
 8000a78:	683b      	ldr	r3, [r7, #0]
 8000a7a:	685b      	ldr	r3, [r3, #4]
 8000a7c:	f003 0203 	and.w	r2, r3, #3
 8000a80:	69bb      	ldr	r3, [r7, #24]
 8000a82:	005b      	lsls	r3, r3, #1
 8000a84:	fa02 f303 	lsl.w	r3, r2, r3
 8000a88:	69fa      	ldr	r2, [r7, #28]
 8000a8a:	4313      	orrs	r3, r2
 8000a8c:	61fb      	str	r3, [r7, #28]
        p_gpio->MODER = tmp;
 8000a8e:	693b      	ldr	r3, [r7, #16]
 8000a90:	69fa      	ldr	r2, [r7, #28]
 8000a92:	601a      	str	r2, [r3, #0]
 8000a94:	e01e      	b.n	8000ad4 <HAL_GPIO_Init+0x1c4>
 8000a96:	bf00      	nop
 8000a98:	46020000 	.word	0x46020000
 8000a9c:	08003a90 	.word	0x08003a90
      {
        /* Check the parameters */
        assert_param(IS_GPIO_ALL_INSTANCE(GPIOx));

        /* Configure IO Direction mode (Input, Output, Alternate or Analog) */
        tmp = p_gpio->MODER;
 8000aa0:	693b      	ldr	r3, [r7, #16]
 8000aa2:	681b      	ldr	r3, [r3, #0]
 8000aa4:	61fb      	str	r3, [r7, #28]
        tmp &= ~(GPIO_MODER_MODE0 << (pin_position * GPIO_MODER_MODE1_Pos));
 8000aa6:	69bb      	ldr	r3, [r7, #24]
 8000aa8:	005b      	lsls	r3, r3, #1
 8000aaa:	2203      	movs	r2, #3
 8000aac:	fa02 f303 	lsl.w	r3, r2, r3
 8000ab0:	43db      	mvns	r3, r3
 8000ab2:	69fa      	ldr	r2, [r7, #28]
 8000ab4:	4013      	ands	r3, r2
 8000ab6:	61fb      	str	r3, [r7, #28]
        tmp |= ((pGPIO_Init->Mode & GPIO_MODE) << (pin_position * GPIO_MODER_MODE1_Pos));
 8000ab8:	683b      	ldr	r3, [r7, #0]
 8000aba:	685b      	ldr	r3, [r3, #4]
 8000abc:	f003 0203 	and.w	r2, r3, #3
 8000ac0:	69bb      	ldr	r3, [r7, #24]
 8000ac2:	005b      	lsls	r3, r3, #1
 8000ac4:	fa02 f303 	lsl.w	r3, r2, r3
 8000ac8:	69fa      	ldr	r2, [r7, #28]
 8000aca:	4313      	orrs	r3, r2
 8000acc:	61fb      	str	r3, [r7, #28]
        p_gpio->MODER = tmp;
 8000ace:	693b      	ldr	r3, [r7, #16]
 8000ad0:	69fa      	ldr	r2, [r7, #28]
 8000ad2:	601a      	str	r2, [r3, #0]
      }

      /* In case of Output or Alternate function mode selection */
      if ((pGPIO_Init->Mode == GPIO_MODE_OUTPUT_PP) || (pGPIO_Init->Mode == GPIO_MODE_AF_PP) ||
 8000ad4:	683b      	ldr	r3, [r7, #0]
 8000ad6:	685b      	ldr	r3, [r3, #4]
 8000ad8:	2b01      	cmp	r3, #1
 8000ada:	d00b      	beq.n	8000af4 <HAL_GPIO_Init+0x1e4>
 8000adc:	683b      	ldr	r3, [r7, #0]
 8000ade:	685b      	ldr	r3, [r3, #4]
 8000ae0:	2b02      	cmp	r3, #2
 8000ae2:	d007      	beq.n	8000af4 <HAL_GPIO_Init+0x1e4>
          (pGPIO_Init->Mode == GPIO_MODE_OUTPUT_OD) || (pGPIO_Init->Mode == GPIO_MODE_AF_OD))
 8000ae4:	683b      	ldr	r3, [r7, #0]
 8000ae6:	685b      	ldr	r3, [r3, #4]
      if ((pGPIO_Init->Mode == GPIO_MODE_OUTPUT_PP) || (pGPIO_Init->Mode == GPIO_MODE_AF_PP) ||
 8000ae8:	2b11      	cmp	r3, #17
 8000aea:	d003      	beq.n	8000af4 <HAL_GPIO_Init+0x1e4>
          (pGPIO_Init->Mode == GPIO_MODE_OUTPUT_OD) || (pGPIO_Init->Mode == GPIO_MODE_AF_OD))
 8000aec:	683b      	ldr	r3, [r7, #0]
 8000aee:	685b      	ldr	r3, [r3, #4]
 8000af0:	2b12      	cmp	r3, #18
 8000af2:	d130      	bne.n	8000b56 <HAL_GPIO_Init+0x246>
      {
        /* Check the Speed parameter */
        assert_param(IS_GPIO_SPEED(pGPIO_Init->Speed));

        /* Configure the IO Speed */
        tmp = p_gpio->OSPEEDR;
 8000af4:	693b      	ldr	r3, [r7, #16]
 8000af6:	689b      	ldr	r3, [r3, #8]
 8000af8:	61fb      	str	r3, [r7, #28]
        tmp &= ~(GPIO_OSPEEDR_OSPEED0 << (pin_position * GPIO_OSPEEDR_OSPEED1_Pos));
 8000afa:	69bb      	ldr	r3, [r7, #24]
 8000afc:	005b      	lsls	r3, r3, #1
 8000afe:	2203      	movs	r2, #3
 8000b00:	fa02 f303 	lsl.w	r3, r2, r3
 8000b04:	43db      	mvns	r3, r3
 8000b06:	69fa      	ldr	r2, [r7, #28]
 8000b08:	4013      	ands	r3, r2
 8000b0a:	61fb      	str	r3, [r7, #28]
        tmp |= (pGPIO_Init->Speed << (pin_position * GPIO_OSPEEDR_OSPEED1_Pos));
 8000b0c:	683b      	ldr	r3, [r7, #0]
 8000b0e:	68da      	ldr	r2, [r3, #12]
 8000b10:	69bb      	ldr	r3, [r7, #24]
 8000b12:	005b      	lsls	r3, r3, #1
 8000b14:	fa02 f303 	lsl.w	r3, r2, r3
 8000b18:	69fa      	ldr	r2, [r7, #28]
 8000b1a:	4313      	orrs	r3, r2
 8000b1c:	61fb      	str	r3, [r7, #28]
        p_gpio->OSPEEDR = tmp;
 8000b1e:	693b      	ldr	r3, [r7, #16]
 8000b20:	69fa      	ldr	r2, [r7, #28]
 8000b22:	609a      	str	r2, [r3, #8]

        /* Configure the IO Output Type */
        tmp = p_gpio->OTYPER;
 8000b24:	693b      	ldr	r3, [r7, #16]
 8000b26:	685b      	ldr	r3, [r3, #4]
 8000b28:	61fb      	str	r3, [r7, #28]
        tmp &= ~(GPIO_OTYPER_OT0 << pin_position);
 8000b2a:	2201      	movs	r2, #1
 8000b2c:	69bb      	ldr	r3, [r7, #24]
 8000b2e:	fa02 f303 	lsl.w	r3, r2, r3
 8000b32:	43db      	mvns	r3, r3
 8000b34:	69fa      	ldr	r2, [r7, #28]
 8000b36:	4013      	ands	r3, r2
 8000b38:	61fb      	str	r3, [r7, #28]
        tmp |= (((pGPIO_Init->Mode & GPIO_OUTPUT_TYPE) >> 4U) << pin_position);
 8000b3a:	683b      	ldr	r3, [r7, #0]
 8000b3c:	685b      	ldr	r3, [r3, #4]
 8000b3e:	091b      	lsrs	r3, r3, #4
 8000b40:	f003 0201 	and.w	r2, r3, #1
 8000b44:	69bb      	ldr	r3, [r7, #24]
 8000b46:	fa02 f303 	lsl.w	r3, r2, r3
 8000b4a:	69fa      	ldr	r2, [r7, #28]
 8000b4c:	4313      	orrs	r3, r2
 8000b4e:	61fb      	str	r3, [r7, #28]
        p_gpio->OTYPER = tmp;
 8000b50:	693b      	ldr	r3, [r7, #16]
 8000b52:	69fa      	ldr	r2, [r7, #28]
 8000b54:	605a      	str	r2, [r3, #4]
      }

      if ((pGPIO_Init->Mode != GPIO_MODE_ANALOG) || 
 8000b56:	683b      	ldr	r3, [r7, #0]
 8000b58:	685b      	ldr	r3, [r3, #4]
 8000b5a:	2b03      	cmp	r3, #3
 8000b5c:	d107      	bne.n	8000b6e <HAL_GPIO_Init+0x25e>
          ((pGPIO_Init->Mode == GPIO_MODE_ANALOG) && (pGPIO_Init->Pull != GPIO_PULLUP)))
 8000b5e:	683b      	ldr	r3, [r7, #0]
 8000b60:	685b      	ldr	r3, [r3, #4]
      if ((pGPIO_Init->Mode != GPIO_MODE_ANALOG) || 
 8000b62:	2b03      	cmp	r3, #3
 8000b64:	d11b      	bne.n	8000b9e <HAL_GPIO_Init+0x28e>
          ((pGPIO_Init->Mode == GPIO_MODE_ANALOG) && (pGPIO_Init->Pull != GPIO_PULLUP)))
 8000b66:	683b      	ldr	r3, [r7, #0]
 8000b68:	689b      	ldr	r3, [r3, #8]
 8000b6a:	2b01      	cmp	r3, #1
 8000b6c:	d017      	beq.n	8000b9e <HAL_GPIO_Init+0x28e>
      {
        /* Check the Pull parameters */
        assert_param(IS_GPIO_PULL(pGPIO_Init->Pull));

        /* Activate the Pull-up or Pull down resistor for the current IO */
        tmp = p_gpio->PUPDR;
 8000b6e:	693b      	ldr	r3, [r7, #16]
 8000b70:	68db      	ldr	r3, [r3, #12]
 8000b72:	61fb      	str	r3, [r7, #28]
        tmp &= ~(GPIO_PUPDR_PUPD0 << (pin_position * GPIO_PUPDR_PUPD1_Pos));
 8000b74:	69bb      	ldr	r3, [r7, #24]
 8000b76:	005b      	lsls	r3, r3, #1
 8000b78:	2203      	movs	r2, #3
 8000b7a:	fa02 f303 	lsl.w	r3, r2, r3
 8000b7e:	43db      	mvns	r3, r3
 8000b80:	69fa      	ldr	r2, [r7, #28]
 8000b82:	4013      	ands	r3, r2
 8000b84:	61fb      	str	r3, [r7, #28]
        tmp |= ((pGPIO_Init->Pull) << (pin_position * GPIO_PUPDR_PUPD1_Pos));
 8000b86:	683b      	ldr	r3, [r7, #0]
 8000b88:	689a      	ldr	r2, [r3, #8]
 8000b8a:	69bb      	ldr	r3, [r7, #24]
 8000b8c:	005b      	lsls	r3, r3, #1
 8000b8e:	fa02 f303 	lsl.w	r3, r2, r3
 8000b92:	69fa      	ldr	r2, [r7, #28]
 8000b94:	4313      	orrs	r3, r2
 8000b96:	61fb      	str	r3, [r7, #28]
        p_gpio->PUPDR = tmp;
 8000b98:	693b      	ldr	r3, [r7, #16]
 8000b9a:	69fa      	ldr	r2, [r7, #28]
 8000b9c:	60da      	str	r2, [r3, #12]
      }

      /*--------------------- EXTI Mode Configuration ------------------------*/
      /* Configure the External Interrupt or event for the current IO */
      if ((pGPIO_Init->Mode & EXTI_MODE) == EXTI_MODE)
 8000b9e:	683b      	ldr	r3, [r7, #0]
 8000ba0:	685b      	ldr	r3, [r3, #4]
 8000ba2:	f003 5380 	and.w	r3, r3, #268435456	@ 0x10000000
 8000ba6:	2b00      	cmp	r3, #0
 8000ba8:	d07c      	beq.n	8000ca4 <HAL_GPIO_Init+0x394>
      {
        tmp = EXTI->EXTICR[position >> 2U];
 8000baa:	4a47      	ldr	r2, [pc, #284]	@ (8000cc8 <HAL_GPIO_Init+0x3b8>)
 8000bac:	697b      	ldr	r3, [r7, #20]
 8000bae:	089b      	lsrs	r3, r3, #2
 8000bb0:	3318      	adds	r3, #24
 8000bb2:	f852 3023 	ldr.w	r3, [r2, r3, lsl #2]
 8000bb6:	61fb      	str	r3, [r7, #28]
        tmp &= ~((0x0FUL) << (EXTI_EXTICR1_EXTI1_Pos * (position & 0x03U)));
 8000bb8:	697b      	ldr	r3, [r7, #20]
 8000bba:	f003 0303 	and.w	r3, r3, #3
 8000bbe:	00db      	lsls	r3, r3, #3
 8000bc0:	220f      	movs	r2, #15
 8000bc2:	fa02 f303 	lsl.w	r3, r2, r3
 8000bc6:	43db      	mvns	r3, r3
 8000bc8:	69fa      	ldr	r2, [r7, #28]
 8000bca:	4013      	ands	r3, r2
 8000bcc:	61fb      	str	r3, [r7, #28]
        tmp |= (GPIO_GET_INDEX(GPIOx) << (EXTI_EXTICR1_EXTI1_Pos * (position & 0x03U)));
 8000bce:	687b      	ldr	r3, [r7, #4]
 8000bd0:	0a9a      	lsrs	r2, r3, #10
 8000bd2:	4b3e      	ldr	r3, [pc, #248]	@ (8000ccc <HAL_GPIO_Init+0x3bc>)
 8000bd4:	4013      	ands	r3, r2
 8000bd6:	697a      	ldr	r2, [r7, #20]
 8000bd8:	f002 0203 	and.w	r2, r2, #3
 8000bdc:	00d2      	lsls	r2, r2, #3
 8000bde:	4093      	lsls	r3, r2
 8000be0:	69fa      	ldr	r2, [r7, #28]
 8000be2:	4313      	orrs	r3, r2
 8000be4:	61fb      	str	r3, [r7, #28]
        EXTI->EXTICR[position >> 2U] = tmp;
 8000be6:	4938      	ldr	r1, [pc, #224]	@ (8000cc8 <HAL_GPIO_Init+0x3b8>)
 8000be8:	697b      	ldr	r3, [r7, #20]
 8000bea:	089b      	lsrs	r3, r3, #2
 8000bec:	3318      	adds	r3, #24
 8000bee:	69fa      	ldr	r2, [r7, #28]
 8000bf0:	f841 2023 	str.w	r2, [r1, r3, lsl #2]

        /* Clear Rising Falling edge configuration */
        tmp = EXTI->RTSR1;
 8000bf4:	4b34      	ldr	r3, [pc, #208]	@ (8000cc8 <HAL_GPIO_Init+0x3b8>)
 8000bf6:	681b      	ldr	r3, [r3, #0]
 8000bf8:	61fb      	str	r3, [r7, #28]
        tmp &= ~((uint32_t)iocurrent);
 8000bfa:	68fb      	ldr	r3, [r7, #12]
 8000bfc:	43db      	mvns	r3, r3
 8000bfe:	69fa      	ldr	r2, [r7, #28]
 8000c00:	4013      	ands	r3, r2
 8000c02:	61fb      	str	r3, [r7, #28]
        if ((pGPIO_Init->Mode & RISING_EDGE) == RISING_EDGE)
 8000c04:	683b      	ldr	r3, [r7, #0]
 8000c06:	685b      	ldr	r3, [r3, #4]
 8000c08:	f403 1380 	and.w	r3, r3, #1048576	@ 0x100000
 8000c0c:	2b00      	cmp	r3, #0
 8000c0e:	d003      	beq.n	8000c18 <HAL_GPIO_Init+0x308>
        {
          tmp |= iocurrent;
 8000c10:	69fa      	ldr	r2, [r7, #28]
 8000c12:	68fb      	ldr	r3, [r7, #12]
 8000c14:	4313      	orrs	r3, r2
 8000c16:	61fb      	str	r3, [r7, #28]
        }
        EXTI->RTSR1 = tmp;
 8000c18:	4a2b      	ldr	r2, [pc, #172]	@ (8000cc8 <HAL_GPIO_Init+0x3b8>)
 8000c1a:	69fb      	ldr	r3, [r7, #28]
 8000c1c:	6013      	str	r3, [r2, #0]

        tmp = EXTI->FTSR1;
 8000c1e:	4b2a      	ldr	r3, [pc, #168]	@ (8000cc8 <HAL_GPIO_Init+0x3b8>)
 8000c20:	685b      	ldr	r3, [r3, #4]
 8000c22:	61fb      	str	r3, [r7, #28]
        tmp &= ~((uint32_t)iocurrent);
 8000c24:	68fb      	ldr	r3, [r7, #12]
 8000c26:	43db      	mvns	r3, r3
 8000c28:	69fa      	ldr	r2, [r7, #28]
 8000c2a:	4013      	ands	r3, r2
 8000c2c:	61fb      	str	r3, [r7, #28]
        if ((pGPIO_Init->Mode & FALLING_EDGE) == FALLING_EDGE)
 8000c2e:	683b      	ldr	r3, [r7, #0]
 8000c30:	685b      	ldr	r3, [r3, #4]
 8000c32:	f403 1300 	and.w	r3, r3, #2097152	@ 0x200000
 8000c36:	2b00      	cmp	r3, #0
 8000c38:	d003      	beq.n	8000c42 <HAL_GPIO_Init+0x332>
        {
          tmp |= iocurrent;
 8000c3a:	69fa      	ldr	r2, [r7, #28]
 8000c3c:	68fb      	ldr	r3, [r7, #12]
 8000c3e:	4313      	orrs	r3, r2
 8000c40:	61fb      	str	r3, [r7, #28]
        }
        EXTI->FTSR1 = tmp;
 8000c42:	4a21      	ldr	r2, [pc, #132]	@ (8000cc8 <HAL_GPIO_Init+0x3b8>)
 8000c44:	69fb      	ldr	r3, [r7, #28]
 8000c46:	6053      	str	r3, [r2, #4]

        /* Clear EXTI line configuration */
        tmp = EXTI->EMR1;
 8000c48:	4b1f      	ldr	r3, [pc, #124]	@ (8000cc8 <HAL_GPIO_Init+0x3b8>)
 8000c4a:	f8d3 3084 	ldr.w	r3, [r3, #132]	@ 0x84
 8000c4e:	61fb      	str	r3, [r7, #28]
        tmp &= ~((uint32_t)iocurrent);
 8000c50:	68fb      	ldr	r3, [r7, #12]
 8000c52:	43db      	mvns	r3, r3
 8000c54:	69fa      	ldr	r2, [r7, #28]
 8000c56:	4013      	ands	r3, r2
 8000c58:	61fb      	str	r3, [r7, #28]
        if ((pGPIO_Init->Mode & GPIO_MODE_EVT) == GPIO_MODE_EVT)
 8000c5a:	683b      	ldr	r3, [r7, #0]
 8000c5c:	685b      	ldr	r3, [r3, #4]
 8000c5e:	f403 3300 	and.w	r3, r3, #131072	@ 0x20000
 8000c62:	2b00      	cmp	r3, #0
 8000c64:	d003      	beq.n	8000c6e <HAL_GPIO_Init+0x35e>
        {
          tmp |= iocurrent;
 8000c66:	69fa      	ldr	r2, [r7, #28]
 8000c68:	68fb      	ldr	r3, [r7, #12]
 8000c6a:	4313      	orrs	r3, r2
 8000c6c:	61fb      	str	r3, [r7, #28]
        }
        EXTI->EMR1 = tmp;
 8000c6e:	4a16      	ldr	r2, [pc, #88]	@ (8000cc8 <HAL_GPIO_Init+0x3b8>)
 8000c70:	69fb      	ldr	r3, [r7, #28]
 8000c72:	f8c2 3084 	str.w	r3, [r2, #132]	@ 0x84

        tmp = EXTI->IMR1;
 8000c76:	4b14      	ldr	r3, [pc, #80]	@ (8000cc8 <HAL_GPIO_Init+0x3b8>)
 8000c78:	f8d3 3080 	ldr.w	r3, [r3, #128]	@ 0x80
 8000c7c:	61fb      	str	r3, [r7, #28]
        tmp &= ~((uint32_t)iocurrent);
 8000c7e:	68fb      	ldr	r3, [r7, #12]
 8000c80:	43db      	mvns	r3, r3
 8000c82:	69fa      	ldr	r2, [r7, #28]
 8000c84:	4013      	ands	r3, r2
 8000c86:	61fb      	str	r3, [r7, #28]
        if ((pGPIO_Init->Mode & GPIO_MODE_IT) == GPIO_MODE_IT)
 8000c88:	683b      	ldr	r3, [r7, #0]
 8000c8a:	685b      	ldr	r3, [r3, #4]
 8000c8c:	f403 3380 	and.w	r3, r3, #65536	@ 0x10000
 8000c90:	2b00      	cmp	r3, #0
 8000c92:	d003      	beq.n	8000c9c <HAL_GPIO_Init+0x38c>
        {
          tmp |= iocurrent;
 8000c94:	69fa      	ldr	r2, [r7, #28]
 8000c96:	68fb      	ldr	r3, [r7, #12]
 8000c98:	4313      	orrs	r3, r2
 8000c9a:	61fb      	str	r3, [r7, #28]
        }
        EXTI->IMR1 = tmp;
 8000c9c:	4a0a      	ldr	r2, [pc, #40]	@ (8000cc8 <HAL_GPIO_Init+0x3b8>)
 8000c9e:	69fb      	ldr	r3, [r7, #28]
 8000ca0:	f8c2 3080 	str.w	r3, [r2, #128]	@ 0x80
      }
    }
    position++;
 8000ca4:	697b      	ldr	r3, [r7, #20]
 8000ca6:	3301      	adds	r3, #1
 8000ca8:	617b      	str	r3, [r7, #20]
  while (((pGPIO_Init->Pin) >> position) != 0U)
 8000caa:	683b      	ldr	r3, [r7, #0]
 8000cac:	681a      	ldr	r2, [r3, #0]
 8000cae:	697b      	ldr	r3, [r7, #20]
 8000cb0:	fa22 f303 	lsr.w	r3, r2, r3
 8000cb4:	2b00      	cmp	r3, #0
 8000cb6:	f47f ae35 	bne.w	8000924 <HAL_GPIO_Init+0x14>
  }
}
 8000cba:	bf00      	nop
 8000cbc:	bf00      	nop
 8000cbe:	3724      	adds	r7, #36	@ 0x24
 8000cc0:	46bd      	mov	sp, r7
 8000cc2:	f85d 7b04 	ldr.w	r7, [sp], #4
 8000cc6:	4770      	bx	lr
 8000cc8:	46022000 	.word	0x46022000
 8000ccc:	002f7f7f 	.word	0x002f7f7f

08000cd0 <HAL_GPIO_WritePin>:
  *            @arg GPIO_PIN_RESET: to clear the port pin
  *            @arg GPIO_PIN_SET: to set the port pin
  * @retval None
  */
void HAL_GPIO_WritePin(GPIO_TypeDef *GPIOx, uint16_t GPIO_Pin, GPIO_PinState PinState)
{
 8000cd0:	b480      	push	{r7}
 8000cd2:	b083      	sub	sp, #12
 8000cd4:	af00      	add	r7, sp, #0
 8000cd6:	6078      	str	r0, [r7, #4]
 8000cd8:	460b      	mov	r3, r1
 8000cda:	807b      	strh	r3, [r7, #2]
 8000cdc:	4613      	mov	r3, r2
 8000cde:	707b      	strb	r3, [r7, #1]
  /* Check the parameters */
  assert_param(IS_GPIO_PIN(GPIO_Pin));
  assert_param(IS_GPIO_PIN_ACTION(PinState));

  if (PinState != GPIO_PIN_RESET)
 8000ce0:	787b      	ldrb	r3, [r7, #1]
 8000ce2:	2b00      	cmp	r3, #0
 8000ce4:	d003      	beq.n	8000cee <HAL_GPIO_WritePin+0x1e>
  {
    GPIOx->BSRR = (uint32_t)GPIO_Pin;
 8000ce6:	887a      	ldrh	r2, [r7, #2]
 8000ce8:	687b      	ldr	r3, [r7, #4]
 8000cea:	619a      	str	r2, [r3, #24]
  }
  else
  {
    GPIOx->BRR  = (uint32_t)GPIO_Pin;
  }
}
 8000cec:	e002      	b.n	8000cf4 <HAL_GPIO_WritePin+0x24>
    GPIOx->BRR  = (uint32_t)GPIO_Pin;
 8000cee:	887a      	ldrh	r2, [r7, #2]
 8000cf0:	687b      	ldr	r3, [r7, #4]
 8000cf2:	629a      	str	r2, [r3, #40]	@ 0x28
}
 8000cf4:	bf00      	nop
 8000cf6:	370c      	adds	r7, #12
 8000cf8:	46bd      	mov	sp, r7
 8000cfa:	f85d 7b04 	ldr.w	r7, [sp], #4
 8000cfe:	4770      	bx	lr

08000d00 <HAL_GPIO_TogglePin>:
  * @param  GPIO_Pin specifies the pin to be toggled.
  *         This parameter can be any combination of GPIO_Pin_x where x can be (0..15).
  * @retval None
  */
void HAL_GPIO_TogglePin(GPIO_TypeDef *GPIOx, uint16_t GPIO_Pin)
{
 8000d00:	b480      	push	{r7}
 8000d02:	b085      	sub	sp, #20
 8000d04:	af00      	add	r7, sp, #0
 8000d06:	6078      	str	r0, [r7, #4]
 8000d08:	460b      	mov	r3, r1
 8000d0a:	807b      	strh	r3, [r7, #2]

  /* Check the parameters */
  assert_param(IS_GPIO_PIN(GPIO_Pin));

  /* get current Output Data Register value */
  odr = GPIOx->ODR;
 8000d0c:	687b      	ldr	r3, [r7, #4]
 8000d0e:	695b      	ldr	r3, [r3, #20]
 8000d10:	60fb      	str	r3, [r7, #12]

  /* Set selected pins that were at low level, and reset ones that were high */
  GPIOx->BSRR = ((odr & GPIO_Pin) << GPIO_NUMBER) | (~odr & GPIO_Pin);
 8000d12:	887a      	ldrh	r2, [r7, #2]
 8000d14:	68fb      	ldr	r3, [r7, #12]
 8000d16:	4013      	ands	r3, r2
 8000d18:	041a      	lsls	r2, r3, #16
 8000d1a:	68fb      	ldr	r3, [r7, #12]
 8000d1c:	43d9      	mvns	r1, r3
 8000d1e:	887b      	ldrh	r3, [r7, #2]
 8000d20:	400b      	ands	r3, r1
 8000d22:	431a      	orrs	r2, r3
 8000d24:	687b      	ldr	r3, [r7, #4]
 8000d26:	619a      	str	r2, [r3, #24]
}
 8000d28:	bf00      	nop
 8000d2a:	3714      	adds	r7, #20
 8000d2c:	46bd      	mov	sp, r7
 8000d2e:	f85d 7b04 	ldr.w	r7, [sp], #4
 8000d32:	4770      	bx	lr

08000d34 <HAL_PWREx_ControlVoltageScaling>:
  * @note  Before moving to voltage scaling 4, it is mandatory to ensure that
  *        the system frequency is below 24 MHz.
  * @retval HAL Status.
  */
HAL_StatusTypeDef HAL_PWREx_ControlVoltageScaling(uint32_t VoltageScaling)
{
 8000d34:	b480      	push	{r7}
 8000d36:	b085      	sub	sp, #20
 8000d38:	af00      	add	r7, sp, #0
 8000d3a:	6078      	str	r0, [r7, #4]

  /* Check the parameter */
  assert_param(IS_PWR_VOLTAGE_SCALING_RANGE(VoltageScaling));

  /* Get the current voltage scale applied */
  vos_old = READ_BIT(PWR->SVMSR, PWR_SVMSR_ACTVOS);
 8000d3c:	4b39      	ldr	r3, [pc, #228]	@ (8000e24 <HAL_PWREx_ControlVoltageScaling+0xf0>)
 8000d3e:	6bdb      	ldr	r3, [r3, #60]	@ 0x3c
 8000d40:	f403 3340 	and.w	r3, r3, #196608	@ 0x30000
 8000d44:	60bb      	str	r3, [r7, #8]

  /* No change, nothing to do */
  if (vos_old == VoltageScaling)
 8000d46:	68ba      	ldr	r2, [r7, #8]
 8000d48:	687b      	ldr	r3, [r7, #4]
 8000d4a:	429a      	cmp	r2, r3
 8000d4c:	d10b      	bne.n	8000d66 <HAL_PWREx_ControlVoltageScaling+0x32>
  {
    /* Enable USB BOOST after wake up from Stop mode */
    if (VoltageScaling > PWR_REGULATOR_VOLTAGE_SCALE3)
 8000d4e:	687b      	ldr	r3, [r7, #4]
 8000d50:	f5b3 3f80 	cmp.w	r3, #65536	@ 0x10000
 8000d54:	d905      	bls.n	8000d62 <HAL_PWREx_ControlVoltageScaling+0x2e>
    {
      /* Enable USB BOOST */
      SET_BIT(PWR->VOSR, PWR_VOSR_BOOSTEN);
 8000d56:	4b33      	ldr	r3, [pc, #204]	@ (8000e24 <HAL_PWREx_ControlVoltageScaling+0xf0>)
 8000d58:	68db      	ldr	r3, [r3, #12]
 8000d5a:	4a32      	ldr	r2, [pc, #200]	@ (8000e24 <HAL_PWREx_ControlVoltageScaling+0xf0>)
 8000d5c:	f443 2380 	orr.w	r3, r3, #262144	@ 0x40000
 8000d60:	60d3      	str	r3, [r2, #12]
    }

    return HAL_OK;
 8000d62:	2300      	movs	r3, #0
 8000d64:	e057      	b.n	8000e16 <HAL_PWREx_ControlVoltageScaling+0xe2>
  /* Check voltage scaling level */
  /*
   *  The Embedded power distribution (EPOD) must be enabled before switching to
   *  voltage scale 1 / 2 from voltage scale lower.
   */
  if (VoltageScaling > PWR_REGULATOR_VOLTAGE_SCALE3)
 8000d66:	687b      	ldr	r3, [r7, #4]
 8000d68:	f5b3 3f80 	cmp.w	r3, #65536	@ 0x10000
 8000d6c:	d90a      	bls.n	8000d84 <HAL_PWREx_ControlVoltageScaling+0x50>
  {
    MODIFY_REG(PWR->VOSR, (PWR_VOSR_VOS | PWR_VOSR_BOOSTEN), (VoltageScaling | PWR_VOSR_BOOSTEN));
 8000d6e:	4b2d      	ldr	r3, [pc, #180]	@ (8000e24 <HAL_PWREx_ControlVoltageScaling+0xf0>)
 8000d70:	68db      	ldr	r3, [r3, #12]
 8000d72:	f423 22e0 	bic.w	r2, r3, #458752	@ 0x70000
 8000d76:	687b      	ldr	r3, [r7, #4]
 8000d78:	4313      	orrs	r3, r2
 8000d7a:	4a2a      	ldr	r2, [pc, #168]	@ (8000e24 <HAL_PWREx_ControlVoltageScaling+0xf0>)
 8000d7c:	f443 2380 	orr.w	r3, r3, #262144	@ 0x40000
 8000d80:	60d3      	str	r3, [r2, #12]
 8000d82:	e007      	b.n	8000d94 <HAL_PWREx_ControlVoltageScaling+0x60>
  }
  else
  {
    MODIFY_REG(PWR->VOSR, (PWR_VOSR_VOS | PWR_VOSR_BOOSTEN), VoltageScaling);
 8000d84:	4b27      	ldr	r3, [pc, #156]	@ (8000e24 <HAL_PWREx_ControlVoltageScaling+0xf0>)
 8000d86:	68db      	ldr	r3, [r3, #12]
 8000d88:	f423 22e0 	bic.w	r2, r3, #458752	@ 0x70000
 8000d8c:	4925      	ldr	r1, [pc, #148]	@ (8000e24 <HAL_PWREx_ControlVoltageScaling+0xf0>)
 8000d8e:	687b      	ldr	r3, [r7, #4]
 8000d90:	4313      	orrs	r3, r2
 8000d92:	60cb      	str	r3, [r1, #12]
  }

  /* Wait until VOSRDY is raised */
  timeout = ((PWR_FLAG_SETTING_DELAY * (SystemCoreClock / 1000U)) / 1000U) + 1U;
 8000d94:	4b24      	ldr	r3, [pc, #144]	@ (8000e28 <HAL_PWREx_ControlVoltageScaling+0xf4>)
 8000d96:	681b      	ldr	r3, [r3, #0]
 8000d98:	4a24      	ldr	r2, [pc, #144]	@ (8000e2c <HAL_PWREx_ControlVoltageScaling+0xf8>)
 8000d9a:	fba2 2303 	umull	r2, r3, r2, r3
 8000d9e:	099b      	lsrs	r3, r3, #6
 8000da0:	2232      	movs	r2, #50	@ 0x32
 8000da2:	fb02 f303 	mul.w	r3, r2, r3
 8000da6:	4a21      	ldr	r2, [pc, #132]	@ (8000e2c <HAL_PWREx_ControlVoltageScaling+0xf8>)
 8000da8:	fba2 2303 	umull	r2, r3, r2, r3
 8000dac:	099b      	lsrs	r3, r3, #6
 8000dae:	3301      	adds	r3, #1
 8000db0:	60fb      	str	r3, [r7, #12]
  while (HAL_IS_BIT_CLR(PWR->VOSR, PWR_VOSR_VOSRDY) && (timeout != 0U))
 8000db2:	e002      	b.n	8000dba <HAL_PWREx_ControlVoltageScaling+0x86>
  {
    timeout--;
 8000db4:	68fb      	ldr	r3, [r7, #12]
 8000db6:	3b01      	subs	r3, #1
 8000db8:	60fb      	str	r3, [r7, #12]
  while (HAL_IS_BIT_CLR(PWR->VOSR, PWR_VOSR_VOSRDY) && (timeout != 0U))
 8000dba:	4b1a      	ldr	r3, [pc, #104]	@ (8000e24 <HAL_PWREx_ControlVoltageScaling+0xf0>)
 8000dbc:	68db      	ldr	r3, [r3, #12]
 8000dbe:	f403 4300 	and.w	r3, r3, #32768	@ 0x8000
 8000dc2:	2b00      	cmp	r3, #0
 8000dc4:	d102      	bne.n	8000dcc <HAL_PWREx_ControlVoltageScaling+0x98>
 8000dc6:	68fb      	ldr	r3, [r7, #12]
 8000dc8:	2b00      	cmp	r3, #0
 8000dca:	d1f3      	bne.n	8000db4 <HAL_PWREx_ControlVoltageScaling+0x80>
  }

  /* Check time out */
  if (timeout != 0U)
 8000dcc:	68fb      	ldr	r3, [r7, #12]
 8000dce:	2b00      	cmp	r3, #0
 8000dd0:	d01b      	beq.n	8000e0a <HAL_PWREx_ControlVoltageScaling+0xd6>
  {
    /* Wait until ACTVOSRDY is raised */
    timeout = ((PWR_FLAG_SETTING_DELAY * (SystemCoreClock / 1000U)) / 1000U) + 1U;
 8000dd2:	4b15      	ldr	r3, [pc, #84]	@ (8000e28 <HAL_PWREx_ControlVoltageScaling+0xf4>)
 8000dd4:	681b      	ldr	r3, [r3, #0]
 8000dd6:	4a15      	ldr	r2, [pc, #84]	@ (8000e2c <HAL_PWREx_ControlVoltageScaling+0xf8>)
 8000dd8:	fba2 2303 	umull	r2, r3, r2, r3
 8000ddc:	099b      	lsrs	r3, r3, #6
 8000dde:	2232      	movs	r2, #50	@ 0x32
 8000de0:	fb02 f303 	mul.w	r3, r2, r3
 8000de4:	4a11      	ldr	r2, [pc, #68]	@ (8000e2c <HAL_PWREx_ControlVoltageScaling+0xf8>)
 8000de6:	fba2 2303 	umull	r2, r3, r2, r3
 8000dea:	099b      	lsrs	r3, r3, #6
 8000dec:	3301      	adds	r3, #1
 8000dee:	60fb      	str	r3, [r7, #12]
    while ((HAL_IS_BIT_CLR(PWR->SVMSR, PWR_SVMSR_ACTVOSRDY)) && (timeout != 0U))
 8000df0:	e002      	b.n	8000df8 <HAL_PWREx_ControlVoltageScaling+0xc4>
    {
      timeout--;
 8000df2:	68fb      	ldr	r3, [r7, #12]
 8000df4:	3b01      	subs	r3, #1
 8000df6:	60fb      	str	r3, [r7, #12]
    while ((HAL_IS_BIT_CLR(PWR->SVMSR, PWR_SVMSR_ACTVOSRDY)) && (timeout != 0U))
 8000df8:	4b0a      	ldr	r3, [pc, #40]	@ (8000e24 <HAL_PWREx_ControlVoltageScaling+0xf0>)
 8000dfa:	6bdb      	ldr	r3, [r3, #60]	@ 0x3c
 8000dfc:	f403 4300 	and.w	r3, r3, #32768	@ 0x8000
 8000e00:	2b00      	cmp	r3, #0
 8000e02:	d102      	bne.n	8000e0a <HAL_PWREx_ControlVoltageScaling+0xd6>
 8000e04:	68fb      	ldr	r3, [r7, #12]
 8000e06:	2b00      	cmp	r3, #0
 8000e08:	d1f3      	bne.n	8000df2 <HAL_PWREx_ControlVoltageScaling+0xbe>
    }
  }

  /* Check time out */
  if (timeout == 0U)
 8000e0a:	68fb      	ldr	r3, [r7, #12]
 8000e0c:	2b00      	cmp	r3, #0
 8000e0e:	d101      	bne.n	8000e14 <HAL_PWREx_ControlVoltageScaling+0xe0>
  {
    return HAL_TIMEOUT;
 8000e10:	2303      	movs	r3, #3
 8000e12:	e000      	b.n	8000e16 <HAL_PWREx_ControlVoltageScaling+0xe2>
  }

  return HAL_OK;
 8000e14:	2300      	movs	r3, #0
}
 8000e16:	4618      	mov	r0, r3
 8000e18:	3714      	adds	r7, #20
 8000e1a:	46bd      	mov	sp, r7
 8000e1c:	f85d 7b04 	ldr.w	r7, [sp], #4
 8000e20:	4770      	bx	lr
 8000e22:	bf00      	nop
 8000e24:	46020800 	.word	0x46020800
 8000e28:	20000008 	.word	0x20000008
 8000e2c:	10624dd3 	.word	0x10624dd3

08000e30 <HAL_PWREx_GetVoltageRange>:
/**
  * @brief  Return Voltage Scaling Range.
  * @retval Applied voltage scaling value.
  */
uint32_t HAL_PWREx_GetVoltageRange(void)
{
 8000e30:	b480      	push	{r7}
 8000e32:	af00      	add	r7, sp, #0
  return (PWR->SVMSR & PWR_SVMSR_ACTVOS);
 8000e34:	4b04      	ldr	r3, [pc, #16]	@ (8000e48 <HAL_PWREx_GetVoltageRange+0x18>)
 8000e36:	6bdb      	ldr	r3, [r3, #60]	@ 0x3c
 8000e38:	f403 3340 	and.w	r3, r3, #196608	@ 0x30000
}
 8000e3c:	4618      	mov	r0, r3
 8000e3e:	46bd      	mov	sp, r7
 8000e40:	f85d 7b04 	ldr.w	r7, [sp], #4
 8000e44:	4770      	bx	lr
 8000e46:	bf00      	nop
 8000e48:	46020800 	.word	0x46020800

08000e4c <HAL_PWREx_ConfigSupply>:
  *                        @arg PWR_LDO_SUPPLY  : The LDO regulator supplies the Vcore Power Domains.
  *                        @arg PWR_SMPS_SUPPLY : The SMPS regulator supplies the Vcore Power Domains.
  * @retval HAL Status.
  */
HAL_StatusTypeDef HAL_PWREx_ConfigSupply(uint32_t SupplySource)
{
 8000e4c:	b480      	push	{r7}
 8000e4e:	b085      	sub	sp, #20
 8000e50:	af00      	add	r7, sp, #0
 8000e52:	6078      	str	r0, [r7, #4]

  /* Check the parameter */
  assert_param(IS_PWR_SUPPLY(SupplySource));

  /* Set maximum time out */
  timeout = ((PWR_FLAG_SETTING_DELAY * (SystemCoreClock / 1000U)) / 1000U) + 1U;
 8000e54:	4b22      	ldr	r3, [pc, #136]	@ (8000ee0 <HAL_PWREx_ConfigSupply+0x94>)
 8000e56:	681b      	ldr	r3, [r3, #0]
 8000e58:	4a22      	ldr	r2, [pc, #136]	@ (8000ee4 <HAL_PWREx_ConfigSupply+0x98>)
 8000e5a:	fba2 2303 	umull	r2, r3, r2, r3
 8000e5e:	099b      	lsrs	r3, r3, #6
 8000e60:	2232      	movs	r2, #50	@ 0x32
 8000e62:	fb02 f303 	mul.w	r3, r2, r3
 8000e66:	4a1f      	ldr	r2, [pc, #124]	@ (8000ee4 <HAL_PWREx_ConfigSupply+0x98>)
 8000e68:	fba2 2303 	umull	r2, r3, r2, r3
 8000e6c:	099b      	lsrs	r3, r3, #6
 8000e6e:	3301      	adds	r3, #1
 8000e70:	60fb      	str	r3, [r7, #12]

  /* Configure the LDO as system regulator supply */
  if (SupplySource == PWR_LDO_SUPPLY)
 8000e72:	687b      	ldr	r3, [r7, #4]
 8000e74:	2b00      	cmp	r3, #0
 8000e76:	d113      	bne.n	8000ea0 <HAL_PWREx_ConfigSupply+0x54>
  {
    /* Set the power supply configuration */
    CLEAR_BIT(PWR->CR3, PWR_CR3_REGSEL);
 8000e78:	4b1b      	ldr	r3, [pc, #108]	@ (8000ee8 <HAL_PWREx_ConfigSupply+0x9c>)
 8000e7a:	689b      	ldr	r3, [r3, #8]
 8000e7c:	4a1a      	ldr	r2, [pc, #104]	@ (8000ee8 <HAL_PWREx_ConfigSupply+0x9c>)
 8000e7e:	f023 0302 	bic.w	r3, r3, #2
 8000e82:	6093      	str	r3, [r2, #8]

    /* Wait until system switch on new regulator */
    while (HAL_IS_BIT_SET(PWR->SVMSR, PWR_SVMSR_REGS) && (timeout != 0U))
 8000e84:	e002      	b.n	8000e8c <HAL_PWREx_ConfigSupply+0x40>
    {
      timeout--;
 8000e86:	68fb      	ldr	r3, [r7, #12]
 8000e88:	3b01      	subs	r3, #1
 8000e8a:	60fb      	str	r3, [r7, #12]
    while (HAL_IS_BIT_SET(PWR->SVMSR, PWR_SVMSR_REGS) && (timeout != 0U))
 8000e8c:	4b16      	ldr	r3, [pc, #88]	@ (8000ee8 <HAL_PWREx_ConfigSupply+0x9c>)
 8000e8e:	6bdb      	ldr	r3, [r3, #60]	@ 0x3c
 8000e90:	f003 0302 	and.w	r3, r3, #2
 8000e94:	2b02      	cmp	r3, #2
 8000e96:	d116      	bne.n	8000ec6 <HAL_PWREx_ConfigSupply+0x7a>
 8000e98:	68fb      	ldr	r3, [r7, #12]
 8000e9a:	2b00      	cmp	r3, #0
 8000e9c:	d1f3      	bne.n	8000e86 <HAL_PWREx_ConfigSupply+0x3a>
 8000e9e:	e012      	b.n	8000ec6 <HAL_PWREx_ConfigSupply+0x7a>
  }
  /* Configure the SMPS as system regulator supply */
  else
  {
    /* Set the power supply configuration */
    SET_BIT(PWR->CR3, PWR_CR3_REGSEL);
 8000ea0:	4b11      	ldr	r3, [pc, #68]	@ (8000ee8 <HAL_PWREx_ConfigSupply+0x9c>)
 8000ea2:	689b      	ldr	r3, [r3, #8]
 8000ea4:	4a10      	ldr	r2, [pc, #64]	@ (8000ee8 <HAL_PWREx_ConfigSupply+0x9c>)
 8000ea6:	f043 0302 	orr.w	r3, r3, #2
 8000eaa:	6093      	str	r3, [r2, #8]

    /* Wait until system switch on new regulator */
    while (HAL_IS_BIT_CLR(PWR->SVMSR, PWR_SVMSR_REGS) && (timeout != 0U))
 8000eac:	e002      	b.n	8000eb4 <HAL_PWREx_ConfigSupply+0x68>
    {
      timeout--;
 8000eae:	68fb      	ldr	r3, [r7, #12]
 8000eb0:	3b01      	subs	r3, #1
 8000eb2:	60fb      	str	r3, [r7, #12]
    while (HAL_IS_BIT_CLR(PWR->SVMSR, PWR_SVMSR_REGS) && (timeout != 0U))
 8000eb4:	4b0c      	ldr	r3, [pc, #48]	@ (8000ee8 <HAL_PWREx_ConfigSupply+0x9c>)
 8000eb6:	6bdb      	ldr	r3, [r3, #60]	@ 0x3c
 8000eb8:	f003 0302 	and.w	r3, r3, #2
 8000ebc:	2b00      	cmp	r3, #0
 8000ebe:	d102      	bne.n	8000ec6 <HAL_PWREx_ConfigSupply+0x7a>
 8000ec0:	68fb      	ldr	r3, [r7, #12]
 8000ec2:	2b00      	cmp	r3, #0
 8000ec4:	d1f3      	bne.n	8000eae <HAL_PWREx_ConfigSupply+0x62>
    }
  }

  /* Check time out */
  if (timeout == 0U)
 8000ec6:	68fb      	ldr	r3, [r7, #12]
 8000ec8:	2b00      	cmp	r3, #0
 8000eca:	d101      	bne.n	8000ed0 <HAL_PWREx_ConfigSupply+0x84>
  {
    return HAL_TIMEOUT;
 8000ecc:	2303      	movs	r3, #3
 8000ece:	e000      	b.n	8000ed2 <HAL_PWREx_ConfigSupply+0x86>
  }

  return HAL_OK;
 8000ed0:	2300      	movs	r3, #0
}
 8000ed2:	4618      	mov	r0, r3
 8000ed4:	3714      	adds	r7, #20
 8000ed6:	46bd      	mov	sp, r7
 8000ed8:	f85d 7b04 	ldr.w	r7, [sp], #4
 8000edc:	4770      	bx	lr
 8000ede:	bf00      	nop
 8000ee0:	20000008 	.word	0x20000008
 8000ee4:	10624dd3 	.word	0x10624dd3
 8000ee8:	46020800 	.word	0x46020800

08000eec <HAL_RCC_OscConfig>:
  *         supported by this function. User should request a transition to HSE Off
  *         first and then HSE On or HSE Bypass.
  * @retval HAL status
  */
HAL_StatusTypeDef HAL_RCC_OscConfig(const RCC_OscInitTypeDef  *pRCC_OscInitStruct)
{
 8000eec:	b580      	push	{r7, lr}
 8000eee:	b08e      	sub	sp, #56	@ 0x38
 8000ef0:	af00      	add	r7, sp, #0
 8000ef2:	6078      	str	r0, [r7, #4]
  uint32_t tickstart;
  HAL_StatusTypeDef status;
  uint32_t sysclk_source;
  uint32_t pll_config;
  FlagStatus pwrboosten = RESET;
 8000ef4:	2300      	movs	r3, #0
 8000ef6:	f887 3037 	strb.w	r3, [r7, #55]	@ 0x37
  uint32_t temp1_pllckcfg;
  uint32_t temp2_pllckcfg;

  /* Check Null pointer */
  if (pRCC_OscInitStruct == NULL)
 8000efa:	687b      	ldr	r3, [r7, #4]
 8000efc:	2b00      	cmp	r3, #0
 8000efe:	d102      	bne.n	8000f06 <HAL_RCC_OscConfig+0x1a>
  {
    return HAL_ERROR;
 8000f00:	2301      	movs	r3, #1
 8000f02:	f000 bec4 	b.w	8001c8e <HAL_RCC_OscConfig+0xda2>
  }

  /* Check the parameters */
  assert_param(IS_RCC_OSCILLATORTYPE(pRCC_OscInitStruct->OscillatorType));

  sysclk_source = __HAL_RCC_GET_SYSCLK_SOURCE();
 8000f06:	4b99      	ldr	r3, [pc, #612]	@ (800116c <HAL_RCC_OscConfig+0x280>)
 8000f08:	69db      	ldr	r3, [r3, #28]
 8000f0a:	f003 030c 	and.w	r3, r3, #12
 8000f0e:	633b      	str	r3, [r7, #48]	@ 0x30
  pll_config = __HAL_RCC_GET_PLL_OSCSOURCE();
 8000f10:	4b96      	ldr	r3, [pc, #600]	@ (800116c <HAL_RCC_OscConfig+0x280>)
 8000f12:	6a9b      	ldr	r3, [r3, #40]	@ 0x28
 8000f14:	f003 0303 	and.w	r3, r3, #3
 8000f18:	62fb      	str	r3, [r7, #44]	@ 0x2c

  /*----------------------------- MSI Configuration --------------------------*/
  if (((pRCC_OscInitStruct->OscillatorType) & RCC_OSCILLATORTYPE_MSI) == RCC_OSCILLATORTYPE_MSI)
 8000f1a:	687b      	ldr	r3, [r7, #4]
 8000f1c:	681b      	ldr	r3, [r3, #0]
 8000f1e:	f003 0310 	and.w	r3, r3, #16
 8000f22:	2b00      	cmp	r3, #0
 8000f24:	f000 816c 	beq.w	8001200 <HAL_RCC_OscConfig+0x314>
    assert_param(IS_RCC_MSICALIBRATION_VALUE(pRCC_OscInitStruct->MSICalibrationValue));
    assert_param(IS_RCC_MSI_CLOCK_RANGE(pRCC_OscInitStruct->MSIClockRange));

    /*Check if MSI is used as system clock or as PLL source when PLL is selected as system clock*/

    if ((sysclk_source == RCC_SYSCLKSOURCE_STATUS_MSI) ||
 8000f28:	6b3b      	ldr	r3, [r7, #48]	@ 0x30
 8000f2a:	2b00      	cmp	r3, #0
 8000f2c:	d007      	beq.n	8000f3e <HAL_RCC_OscConfig+0x52>
 8000f2e:	6b3b      	ldr	r3, [r7, #48]	@ 0x30
 8000f30:	2b0c      	cmp	r3, #12
 8000f32:	f040 80de 	bne.w	80010f2 <HAL_RCC_OscConfig+0x206>
        ((sysclk_source == RCC_SYSCLKSOURCE_STATUS_PLLCLK) && (pll_config == RCC_PLLSOURCE_MSI)))
 8000f36:	6afb      	ldr	r3, [r7, #44]	@ 0x2c
 8000f38:	2b01      	cmp	r3, #1
 8000f3a:	f040 80da 	bne.w	80010f2 <HAL_RCC_OscConfig+0x206>
    {
      if (pRCC_OscInitStruct->MSIState == RCC_MSI_OFF)
 8000f3e:	687b      	ldr	r3, [r7, #4]
 8000f40:	69db      	ldr	r3, [r3, #28]
 8000f42:	2b00      	cmp	r3, #0
 8000f44:	d102      	bne.n	8000f4c <HAL_RCC_OscConfig+0x60>
      {
        return HAL_ERROR;
 8000f46:	2301      	movs	r3, #1
 8000f48:	f000 bea1 	b.w	8001c8e <HAL_RCC_OscConfig+0xda2>
      else
      {
        /* To correctly read data from FLASH memory, the number of wait states (LATENCY)
           must be correctly programmed according to the frequency of the CPU clock
           (HCLK) and the supply voltage of the device */
        if (pRCC_OscInitStruct->MSIClockRange > __HAL_RCC_GET_MSI_RANGE())
 8000f4c:	687b      	ldr	r3, [r7, #4]
 8000f4e:	6a5a      	ldr	r2, [r3, #36]	@ 0x24
 8000f50:	4b86      	ldr	r3, [pc, #536]	@ (800116c <HAL_RCC_OscConfig+0x280>)
 8000f52:	689b      	ldr	r3, [r3, #8]
 8000f54:	f403 0300 	and.w	r3, r3, #8388608	@ 0x800000
 8000f58:	2b00      	cmp	r3, #0
 8000f5a:	d004      	beq.n	8000f66 <HAL_RCC_OscConfig+0x7a>
 8000f5c:	4b83      	ldr	r3, [pc, #524]	@ (800116c <HAL_RCC_OscConfig+0x280>)
 8000f5e:	689b      	ldr	r3, [r3, #8]
 8000f60:	f003 4370 	and.w	r3, r3, #4026531840	@ 0xf0000000
 8000f64:	e005      	b.n	8000f72 <HAL_RCC_OscConfig+0x86>
 8000f66:	4b81      	ldr	r3, [pc, #516]	@ (800116c <HAL_RCC_OscConfig+0x280>)
 8000f68:	f8d3 30f4 	ldr.w	r3, [r3, #244]	@ 0xf4
 8000f6c:	041b      	lsls	r3, r3, #16
 8000f6e:	f003 4370 	and.w	r3, r3, #4026531840	@ 0xf0000000
 8000f72:	4293      	cmp	r3, r2
 8000f74:	d255      	bcs.n	8001022 <HAL_RCC_OscConfig+0x136>
        {
          /* Decrease number of wait states update if necessary */
          /* Only possible when MSI is the System clock source  */
          if (sysclk_source == RCC_SYSCLKSOURCE_STATUS_MSI)
 8000f76:	6b3b      	ldr	r3, [r7, #48]	@ 0x30
 8000f78:	2b00      	cmp	r3, #0
 8000f7a:	d10a      	bne.n	8000f92 <HAL_RCC_OscConfig+0xa6>
          {
            if (RCC_SetFlashLatencyFromMSIRange(pRCC_OscInitStruct->MSIClockRange) != HAL_OK)
 8000f7c:	687b      	ldr	r3, [r7, #4]
 8000f7e:	6a5b      	ldr	r3, [r3, #36]	@ 0x24
 8000f80:	4618      	mov	r0, r3
 8000f82:	f001 f99d 	bl	80022c0 <RCC_SetFlashLatencyFromMSIRange>
 8000f86:	4603      	mov	r3, r0
 8000f88:	2b00      	cmp	r3, #0
 8000f8a:	d002      	beq.n	8000f92 <HAL_RCC_OscConfig+0xa6>
            {
              return HAL_ERROR;
 8000f8c:	2301      	movs	r3, #1
 8000f8e:	f000 be7e 	b.w	8001c8e <HAL_RCC_OscConfig+0xda2>
            }
          }

          /* Selects the Multiple Speed oscillator (MSI) clock range */
          __HAL_RCC_MSI_RANGE_CONFIG(pRCC_OscInitStruct->MSIClockRange);
 8000f92:	4b76      	ldr	r3, [pc, #472]	@ (800116c <HAL_RCC_OscConfig+0x280>)
 8000f94:	689b      	ldr	r3, [r3, #8]
 8000f96:	4a75      	ldr	r2, [pc, #468]	@ (800116c <HAL_RCC_OscConfig+0x280>)
 8000f98:	f443 0300 	orr.w	r3, r3, #8388608	@ 0x800000
 8000f9c:	6093      	str	r3, [r2, #8]
 8000f9e:	4b73      	ldr	r3, [pc, #460]	@ (800116c <HAL_RCC_OscConfig+0x280>)
 8000fa0:	689b      	ldr	r3, [r3, #8]
 8000fa2:	f023 4270 	bic.w	r2, r3, #4026531840	@ 0xf0000000
 8000fa6:	687b      	ldr	r3, [r7, #4]
 8000fa8:	6a5b      	ldr	r3, [r3, #36]	@ 0x24
 8000faa:	4970      	ldr	r1, [pc, #448]	@ (800116c <HAL_RCC_OscConfig+0x280>)
 8000fac:	4313      	orrs	r3, r2
 8000fae:	608b      	str	r3, [r1, #8]
          /* Adjusts the Multiple Speed oscillator (MSI) calibration value */
          __HAL_RCC_MSI_CALIBRATIONVALUE_ADJUST((pRCC_OscInitStruct->MSICalibrationValue), \
 8000fb0:	687b      	ldr	r3, [r7, #4]
 8000fb2:	6a5b      	ldr	r3, [r3, #36]	@ 0x24
 8000fb4:	f1b3 4f40 	cmp.w	r3, #3221225472	@ 0xc0000000
 8000fb8:	d309      	bcc.n	8000fce <HAL_RCC_OscConfig+0xe2>
 8000fba:	4b6c      	ldr	r3, [pc, #432]	@ (800116c <HAL_RCC_OscConfig+0x280>)
 8000fbc:	68db      	ldr	r3, [r3, #12]
 8000fbe:	f023 021f 	bic.w	r2, r3, #31
 8000fc2:	687b      	ldr	r3, [r7, #4]
 8000fc4:	6a1b      	ldr	r3, [r3, #32]
 8000fc6:	4969      	ldr	r1, [pc, #420]	@ (800116c <HAL_RCC_OscConfig+0x280>)
 8000fc8:	4313      	orrs	r3, r2
 8000fca:	60cb      	str	r3, [r1, #12]
 8000fcc:	e07e      	b.n	80010cc <HAL_RCC_OscConfig+0x1e0>
 8000fce:	687b      	ldr	r3, [r7, #4]
 8000fd0:	6a5b      	ldr	r3, [r3, #36]	@ 0x24
 8000fd2:	2b00      	cmp	r3, #0
 8000fd4:	da0a      	bge.n	8000fec <HAL_RCC_OscConfig+0x100>
 8000fd6:	4b65      	ldr	r3, [pc, #404]	@ (800116c <HAL_RCC_OscConfig+0x280>)
 8000fd8:	68db      	ldr	r3, [r3, #12]
 8000fda:	f423 7278 	bic.w	r2, r3, #992	@ 0x3e0
 8000fde:	687b      	ldr	r3, [r7, #4]
 8000fe0:	6a1b      	ldr	r3, [r3, #32]
 8000fe2:	015b      	lsls	r3, r3, #5
 8000fe4:	4961      	ldr	r1, [pc, #388]	@ (800116c <HAL_RCC_OscConfig+0x280>)
 8000fe6:	4313      	orrs	r3, r2
 8000fe8:	60cb      	str	r3, [r1, #12]
 8000fea:	e06f      	b.n	80010cc <HAL_RCC_OscConfig+0x1e0>
 8000fec:	687b      	ldr	r3, [r7, #4]
 8000fee:	6a5b      	ldr	r3, [r3, #36]	@ 0x24
 8000ff0:	f1b3 4f80 	cmp.w	r3, #1073741824	@ 0x40000000
 8000ff4:	d30a      	bcc.n	800100c <HAL_RCC_OscConfig+0x120>
 8000ff6:	4b5d      	ldr	r3, [pc, #372]	@ (800116c <HAL_RCC_OscConfig+0x280>)
 8000ff8:	68db      	ldr	r3, [r3, #12]
 8000ffa:	f423 42f8 	bic.w	r2, r3, #31744	@ 0x7c00
 8000ffe:	687b      	ldr	r3, [r7, #4]
 8001000:	6a1b      	ldr	r3, [r3, #32]
 8001002:	029b      	lsls	r3, r3, #10
 8001004:	4959      	ldr	r1, [pc, #356]	@ (800116c <HAL_RCC_OscConfig+0x280>)
 8001006:	4313      	orrs	r3, r2
 8001008:	60cb      	str	r3, [r1, #12]
 800100a:	e05f      	b.n	80010cc <HAL_RCC_OscConfig+0x1e0>
 800100c:	4b57      	ldr	r3, [pc, #348]	@ (800116c <HAL_RCC_OscConfig+0x280>)
 800100e:	68db      	ldr	r3, [r3, #12]
 8001010:	f423 2278 	bic.w	r2, r3, #1015808	@ 0xf8000
 8001014:	687b      	ldr	r3, [r7, #4]
 8001016:	6a1b      	ldr	r3, [r3, #32]
 8001018:	03db      	lsls	r3, r3, #15
 800101a:	4954      	ldr	r1, [pc, #336]	@ (800116c <HAL_RCC_OscConfig+0x280>)
 800101c:	4313      	orrs	r3, r2
 800101e:	60cb      	str	r3, [r1, #12]
 8001020:	e054      	b.n	80010cc <HAL_RCC_OscConfig+0x1e0>
        }
        else
        {
          /* Else, keep current flash latency while decreasing applies */
          /* Selects the Multiple Speed oscillator (MSI) clock range */
          __HAL_RCC_MSI_RANGE_CONFIG(pRCC_OscInitStruct->MSIClockRange);
 8001022:	4b52      	ldr	r3, [pc, #328]	@ (800116c <HAL_RCC_OscConfig+0x280>)
 8001024:	689b      	ldr	r3, [r3, #8]
 8001026:	4a51      	ldr	r2, [pc, #324]	@ (800116c <HAL_RCC_OscConfig+0x280>)
 8001028:	f443 0300 	orr.w	r3, r3, #8388608	@ 0x800000
 800102c:	6093      	str	r3, [r2, #8]
 800102e:	4b4f      	ldr	r3, [pc, #316]	@ (800116c <HAL_RCC_OscConfig+0x280>)
 8001030:	689b      	ldr	r3, [r3, #8]
 8001032:	f023 4270 	bic.w	r2, r3, #4026531840	@ 0xf0000000
 8001036:	687b      	ldr	r3, [r7, #4]
 8001038:	6a5b      	ldr	r3, [r3, #36]	@ 0x24
 800103a:	494c      	ldr	r1, [pc, #304]	@ (800116c <HAL_RCC_OscConfig+0x280>)
 800103c:	4313      	orrs	r3, r2
 800103e:	608b      	str	r3, [r1, #8]
          /* Adjusts the Multiple Speed oscillator (MSI) calibration value */
          __HAL_RCC_MSI_CALIBRATIONVALUE_ADJUST((pRCC_OscInitStruct->MSICalibrationValue), \
 8001040:	687b      	ldr	r3, [r7, #4]
 8001042:	6a5b      	ldr	r3, [r3, #36]	@ 0x24
 8001044:	f1b3 4f40 	cmp.w	r3, #3221225472	@ 0xc0000000
 8001048:	d309      	bcc.n	800105e <HAL_RCC_OscConfig+0x172>
 800104a:	4b48      	ldr	r3, [pc, #288]	@ (800116c <HAL_RCC_OscConfig+0x280>)
 800104c:	68db      	ldr	r3, [r3, #12]
 800104e:	f023 021f 	bic.w	r2, r3, #31
 8001052:	687b      	ldr	r3, [r7, #4]
 8001054:	6a1b      	ldr	r3, [r3, #32]
 8001056:	4945      	ldr	r1, [pc, #276]	@ (800116c <HAL_RCC_OscConfig+0x280>)
 8001058:	4313      	orrs	r3, r2
 800105a:	60cb      	str	r3, [r1, #12]
 800105c:	e028      	b.n	80010b0 <HAL_RCC_OscConfig+0x1c4>
 800105e:	687b      	ldr	r3, [r7, #4]
 8001060:	6a5b      	ldr	r3, [r3, #36]	@ 0x24
 8001062:	2b00      	cmp	r3, #0
 8001064:	da0a      	bge.n	800107c <HAL_RCC_OscConfig+0x190>
 8001066:	4b41      	ldr	r3, [pc, #260]	@ (800116c <HAL_RCC_OscConfig+0x280>)
 8001068:	68db      	ldr	r3, [r3, #12]
 800106a:	f423 7278 	bic.w	r2, r3, #992	@ 0x3e0
 800106e:	687b      	ldr	r3, [r7, #4]
 8001070:	6a1b      	ldr	r3, [r3, #32]
 8001072:	015b      	lsls	r3, r3, #5
 8001074:	493d      	ldr	r1, [pc, #244]	@ (800116c <HAL_RCC_OscConfig+0x280>)
 8001076:	4313      	orrs	r3, r2
 8001078:	60cb      	str	r3, [r1, #12]
 800107a:	e019      	b.n	80010b0 <HAL_RCC_OscConfig+0x1c4>
 800107c:	687b      	ldr	r3, [r7, #4]
 800107e:	6a5b      	ldr	r3, [r3, #36]	@ 0x24
 8001080:	f1b3 4f80 	cmp.w	r3, #1073741824	@ 0x40000000
 8001084:	d30a      	bcc.n	800109c <HAL_RCC_OscConfig+0x1b0>
 8001086:	4b39      	ldr	r3, [pc, #228]	@ (800116c <HAL_RCC_OscConfig+0x280>)
 8001088:	68db      	ldr	r3, [r3, #12]
 800108a:	f423 42f8 	bic.w	r2, r3, #31744	@ 0x7c00
 800108e:	687b      	ldr	r3, [r7, #4]
 8001090:	6a1b      	ldr	r3, [r3, #32]
 8001092:	029b      	lsls	r3, r3, #10
 8001094:	4935      	ldr	r1, [pc, #212]	@ (800116c <HAL_RCC_OscConfig+0x280>)
 8001096:	4313      	orrs	r3, r2
 8001098:	60cb      	str	r3, [r1, #12]
 800109a:	e009      	b.n	80010b0 <HAL_RCC_OscConfig+0x1c4>
 800109c:	4b33      	ldr	r3, [pc, #204]	@ (800116c <HAL_RCC_OscConfig+0x280>)
 800109e:	68db      	ldr	r3, [r3, #12]
 80010a0:	f423 2278 	bic.w	r2, r3, #1015808	@ 0xf8000
 80010a4:	687b      	ldr	r3, [r7, #4]
 80010a6:	6a1b      	ldr	r3, [r3, #32]
 80010a8:	03db      	lsls	r3, r3, #15
 80010aa:	4930      	ldr	r1, [pc, #192]	@ (800116c <HAL_RCC_OscConfig+0x280>)
 80010ac:	4313      	orrs	r3, r2
 80010ae:	60cb      	str	r3, [r1, #12]
                                                (pRCC_OscInitStruct->MSIClockRange));

          if (sysclk_source == RCC_SYSCLKSOURCE_STATUS_MSI)
 80010b0:	6b3b      	ldr	r3, [r7, #48]	@ 0x30
 80010b2:	2b00      	cmp	r3, #0
 80010b4:	d10a      	bne.n	80010cc <HAL_RCC_OscConfig+0x1e0>
          {
            if (RCC_SetFlashLatencyFromMSIRange(pRCC_OscInitStruct->MSIClockRange) != HAL_OK)
 80010b6:	687b      	ldr	r3, [r7, #4]
 80010b8:	6a5b      	ldr	r3, [r3, #36]	@ 0x24
 80010ba:	4618      	mov	r0, r3
 80010bc:	f001 f900 	bl	80022c0 <RCC_SetFlashLatencyFromMSIRange>
 80010c0:	4603      	mov	r3, r0
 80010c2:	2b00      	cmp	r3, #0
 80010c4:	d002      	beq.n	80010cc <HAL_RCC_OscConfig+0x1e0>
            {
              return HAL_ERROR;
 80010c6:	2301      	movs	r3, #1
 80010c8:	f000 bde1 	b.w	8001c8e <HAL_RCC_OscConfig+0xda2>
            }
          }
        }

        /* Update the SystemCoreClock global variable */
        (void) HAL_RCC_GetHCLKFreq();
 80010cc:	f001 f8de 	bl	800228c <HAL_RCC_GetHCLKFreq>
        /* Configure the source of time base considering new system clocks settings*/
        status = HAL_InitTick(uwTickPrio);
 80010d0:	4b27      	ldr	r3, [pc, #156]	@ (8001170 <HAL_RCC_OscConfig+0x284>)
 80010d2:	681b      	ldr	r3, [r3, #0]
 80010d4:	4618      	mov	r0, r3
 80010d6:	f7ff fa1d 	bl	8000514 <HAL_InitTick>
 80010da:	4603      	mov	r3, r0
 80010dc:	f887 3027 	strb.w	r3, [r7, #39]	@ 0x27
        if (status != HAL_OK)
 80010e0:	f897 3027 	ldrb.w	r3, [r7, #39]	@ 0x27
 80010e4:	2b00      	cmp	r3, #0
 80010e6:	f000 808a 	beq.w	80011fe <HAL_RCC_OscConfig+0x312>
        {
          return status;
 80010ea:	f897 3027 	ldrb.w	r3, [r7, #39]	@ 0x27
 80010ee:	f000 bdce 	b.w	8001c8e <HAL_RCC_OscConfig+0xda2>
      }
    }
    else
    {
      /* Check the MSI State */
      if (pRCC_OscInitStruct->MSIState != RCC_MSI_OFF)
 80010f2:	687b      	ldr	r3, [r7, #4]
 80010f4:	69db      	ldr	r3, [r3, #28]
 80010f6:	2b00      	cmp	r3, #0
 80010f8:	d066      	beq.n	80011c8 <HAL_RCC_OscConfig+0x2dc>
      {
        /* Enable the Internal High Speed oscillator (MSI) */
        __HAL_RCC_MSI_ENABLE();
 80010fa:	4b1c      	ldr	r3, [pc, #112]	@ (800116c <HAL_RCC_OscConfig+0x280>)
 80010fc:	681b      	ldr	r3, [r3, #0]
 80010fe:	4a1b      	ldr	r2, [pc, #108]	@ (800116c <HAL_RCC_OscConfig+0x280>)
 8001100:	f043 0301 	orr.w	r3, r3, #1
 8001104:	6013      	str	r3, [r2, #0]

        tickstart = HAL_GetTick();
 8001106:	f7ff fa8f 	bl	8000628 <HAL_GetTick>
 800110a:	62b8      	str	r0, [r7, #40]	@ 0x28

        /* Wait till MSI is ready */
        while (READ_BIT(RCC->CR, RCC_CR_MSISRDY) == 0U)
 800110c:	e009      	b.n	8001122 <HAL_RCC_OscConfig+0x236>
        {
          if ((HAL_GetTick() - tickstart) > MSI_TIMEOUT_VALUE)
 800110e:	f7ff fa8b 	bl	8000628 <HAL_GetTick>
 8001112:	4602      	mov	r2, r0
 8001114:	6abb      	ldr	r3, [r7, #40]	@ 0x28
 8001116:	1ad3      	subs	r3, r2, r3
 8001118:	2b02      	cmp	r3, #2
 800111a:	d902      	bls.n	8001122 <HAL_RCC_OscConfig+0x236>
          {
            return HAL_TIMEOUT;
 800111c:	2303      	movs	r3, #3
 800111e:	f000 bdb6 	b.w	8001c8e <HAL_RCC_OscConfig+0xda2>
        while (READ_BIT(RCC->CR, RCC_CR_MSISRDY) == 0U)
 8001122:	4b12      	ldr	r3, [pc, #72]	@ (800116c <HAL_RCC_OscConfig+0x280>)
 8001124:	681b      	ldr	r3, [r3, #0]
 8001126:	f003 0304 	and.w	r3, r3, #4
 800112a:	2b00      	cmp	r3, #0
 800112c:	d0ef      	beq.n	800110e <HAL_RCC_OscConfig+0x222>
          }
        }
        /* Selects the Multiple Speed oscillator (MSI) clock range */
        __HAL_RCC_MSI_RANGE_CONFIG(pRCC_OscInitStruct->MSIClockRange);
 800112e:	4b0f      	ldr	r3, [pc, #60]	@ (800116c <HAL_RCC_OscConfig+0x280>)
 8001130:	689b      	ldr	r3, [r3, #8]
 8001132:	4a0e      	ldr	r2, [pc, #56]	@ (800116c <HAL_RCC_OscConfig+0x280>)
 8001134:	f443 0300 	orr.w	r3, r3, #8388608	@ 0x800000
 8001138:	6093      	str	r3, [r2, #8]
 800113a:	4b0c      	ldr	r3, [pc, #48]	@ (800116c <HAL_RCC_OscConfig+0x280>)
 800113c:	689b      	ldr	r3, [r3, #8]
 800113e:	f023 4270 	bic.w	r2, r3, #4026531840	@ 0xf0000000
 8001142:	687b      	ldr	r3, [r7, #4]
 8001144:	6a5b      	ldr	r3, [r3, #36]	@ 0x24
 8001146:	4909      	ldr	r1, [pc, #36]	@ (800116c <HAL_RCC_OscConfig+0x280>)
 8001148:	4313      	orrs	r3, r2
 800114a:	608b      	str	r3, [r1, #8]
        /* Adjusts the Multiple Speed oscillator (MSI) calibration value */
        __HAL_RCC_MSI_CALIBRATIONVALUE_ADJUST((pRCC_OscInitStruct->MSICalibrationValue), \
 800114c:	687b      	ldr	r3, [r7, #4]
 800114e:	6a5b      	ldr	r3, [r3, #36]	@ 0x24
 8001150:	f1b3 4f40 	cmp.w	r3, #3221225472	@ 0xc0000000
 8001154:	d30e      	bcc.n	8001174 <HAL_RCC_OscConfig+0x288>
 8001156:	4b05      	ldr	r3, [pc, #20]	@ (800116c <HAL_RCC_OscConfig+0x280>)
 8001158:	68db      	ldr	r3, [r3, #12]
 800115a:	f023 021f 	bic.w	r2, r3, #31
 800115e:	687b      	ldr	r3, [r7, #4]
 8001160:	6a1b      	ldr	r3, [r3, #32]
 8001162:	4902      	ldr	r1, [pc, #8]	@ (800116c <HAL_RCC_OscConfig+0x280>)
 8001164:	4313      	orrs	r3, r2
 8001166:	60cb      	str	r3, [r1, #12]
 8001168:	e04a      	b.n	8001200 <HAL_RCC_OscConfig+0x314>
 800116a:	bf00      	nop
 800116c:	46020c00 	.word	0x46020c00
 8001170:	20000000 	.word	0x20000000
 8001174:	687b      	ldr	r3, [r7, #4]
 8001176:	6a5b      	ldr	r3, [r3, #36]	@ 0x24
 8001178:	2b00      	cmp	r3, #0
 800117a:	da0a      	bge.n	8001192 <HAL_RCC_OscConfig+0x2a6>
 800117c:	4b98      	ldr	r3, [pc, #608]	@ (80013e0 <HAL_RCC_OscConfig+0x4f4>)
 800117e:	68db      	ldr	r3, [r3, #12]
 8001180:	f423 7278 	bic.w	r2, r3, #992	@ 0x3e0
 8001184:	687b      	ldr	r3, [r7, #4]
 8001186:	6a1b      	ldr	r3, [r3, #32]
 8001188:	015b      	lsls	r3, r3, #5
 800118a:	4995      	ldr	r1, [pc, #596]	@ (80013e0 <HAL_RCC_OscConfig+0x4f4>)
 800118c:	4313      	orrs	r3, r2
 800118e:	60cb      	str	r3, [r1, #12]
 8001190:	e036      	b.n	8001200 <HAL_RCC_OscConfig+0x314>
 8001192:	687b      	ldr	r3, [r7, #4]
 8001194:	6a5b      	ldr	r3, [r3, #36]	@ 0x24
 8001196:	f1b3 4f80 	cmp.w	r3, #1073741824	@ 0x40000000
 800119a:	d30a      	bcc.n	80011b2 <HAL_RCC_OscConfig+0x2c6>
 800119c:	4b90      	ldr	r3, [pc, #576]	@ (80013e0 <HAL_RCC_OscConfig+0x4f4>)
 800119e:	68db      	ldr	r3, [r3, #12]
 80011a0:	f423 42f8 	bic.w	r2, r3, #31744	@ 0x7c00
 80011a4:	687b      	ldr	r3, [r7, #4]
 80011a6:	6a1b      	ldr	r3, [r3, #32]
 80011a8:	029b      	lsls	r3, r3, #10
 80011aa:	498d      	ldr	r1, [pc, #564]	@ (80013e0 <HAL_RCC_OscConfig+0x4f4>)
 80011ac:	4313      	orrs	r3, r2
 80011ae:	60cb      	str	r3, [r1, #12]
 80011b0:	e026      	b.n	8001200 <HAL_RCC_OscConfig+0x314>
 80011b2:	4b8b      	ldr	r3, [pc, #556]	@ (80013e0 <HAL_RCC_OscConfig+0x4f4>)
 80011b4:	68db      	ldr	r3, [r3, #12]
 80011b6:	f423 2278 	bic.w	r2, r3, #1015808	@ 0xf8000
 80011ba:	687b      	ldr	r3, [r7, #4]
 80011bc:	6a1b      	ldr	r3, [r3, #32]
 80011be:	03db      	lsls	r3, r3, #15
 80011c0:	4987      	ldr	r1, [pc, #540]	@ (80013e0 <HAL_RCC_OscConfig+0x4f4>)
 80011c2:	4313      	orrs	r3, r2
 80011c4:	60cb      	str	r3, [r1, #12]
 80011c6:	e01b      	b.n	8001200 <HAL_RCC_OscConfig+0x314>

      }
      else
      {
        /* Disable the Internal High Speed oscillator (MSI) */
        __HAL_RCC_MSI_DISABLE();
 80011c8:	4b85      	ldr	r3, [pc, #532]	@ (80013e0 <HAL_RCC_OscConfig+0x4f4>)
 80011ca:	681b      	ldr	r3, [r3, #0]
 80011cc:	4a84      	ldr	r2, [pc, #528]	@ (80013e0 <HAL_RCC_OscConfig+0x4f4>)
 80011ce:	f023 0301 	bic.w	r3, r3, #1
 80011d2:	6013      	str	r3, [r2, #0]

        tickstart = HAL_GetTick();
 80011d4:	f7ff fa28 	bl	8000628 <HAL_GetTick>
 80011d8:	62b8      	str	r0, [r7, #40]	@ 0x28

        /* Wait till MSI is ready */
        while (READ_BIT(RCC->CR, RCC_CR_MSISRDY) != 0U)
 80011da:	e009      	b.n	80011f0 <HAL_RCC_OscConfig+0x304>
        {
          if ((HAL_GetTick() - tickstart) > MSI_TIMEOUT_VALUE)
 80011dc:	f7ff fa24 	bl	8000628 <HAL_GetTick>
 80011e0:	4602      	mov	r2, r0
 80011e2:	6abb      	ldr	r3, [r7, #40]	@ 0x28
 80011e4:	1ad3      	subs	r3, r2, r3
 80011e6:	2b02      	cmp	r3, #2
 80011e8:	d902      	bls.n	80011f0 <HAL_RCC_OscConfig+0x304>
          {
            return HAL_TIMEOUT;
 80011ea:	2303      	movs	r3, #3
 80011ec:	f000 bd4f 	b.w	8001c8e <HAL_RCC_OscConfig+0xda2>
        while (READ_BIT(RCC->CR, RCC_CR_MSISRDY) != 0U)
 80011f0:	4b7b      	ldr	r3, [pc, #492]	@ (80013e0 <HAL_RCC_OscConfig+0x4f4>)
 80011f2:	681b      	ldr	r3, [r3, #0]
 80011f4:	f003 0304 	and.w	r3, r3, #4
 80011f8:	2b00      	cmp	r3, #0
 80011fa:	d1ef      	bne.n	80011dc <HAL_RCC_OscConfig+0x2f0>
 80011fc:	e000      	b.n	8001200 <HAL_RCC_OscConfig+0x314>
      if (pRCC_OscInitStruct->MSIState == RCC_MSI_OFF)
 80011fe:	bf00      	nop
        }
      }
    }
  }
  /*------------------------------- HSE Configuration ------------------------*/
  if (((pRCC_OscInitStruct->OscillatorType) & RCC_OSCILLATORTYPE_HSE) == RCC_OSCILLATORTYPE_HSE)
 8001200:	687b      	ldr	r3, [r7, #4]
 8001202:	681b      	ldr	r3, [r3, #0]
 8001204:	f003 0301 	and.w	r3, r3, #1
 8001208:	2b00      	cmp	r3, #0
 800120a:	f000 808b 	beq.w	8001324 <HAL_RCC_OscConfig+0x438>
  {
    /* Check the parameters */
    assert_param(IS_RCC_HSE(pRCC_OscInitStruct->HSEState));

    /* When the HSE is used as system clock or clock source for PLL in these cases it is not allowed to be disabled */
    if ((sysclk_source == RCC_SYSCLKSOURCE_STATUS_HSE) ||
 800120e:	6b3b      	ldr	r3, [r7, #48]	@ 0x30
 8001210:	2b08      	cmp	r3, #8
 8001212:	d005      	beq.n	8001220 <HAL_RCC_OscConfig+0x334>
 8001214:	6b3b      	ldr	r3, [r7, #48]	@ 0x30
 8001216:	2b0c      	cmp	r3, #12
 8001218:	d109      	bne.n	800122e <HAL_RCC_OscConfig+0x342>
        ((sysclk_source == RCC_SYSCLKSOURCE_STATUS_PLLCLK) && (pll_config == RCC_PLLSOURCE_HSE)))
 800121a:	6afb      	ldr	r3, [r7, #44]	@ 0x2c
 800121c:	2b03      	cmp	r3, #3
 800121e:	d106      	bne.n	800122e <HAL_RCC_OscConfig+0x342>
    {
      if (pRCC_OscInitStruct->HSEState == RCC_HSE_OFF)
 8001220:	687b      	ldr	r3, [r7, #4]
 8001222:	685b      	ldr	r3, [r3, #4]
 8001224:	2b00      	cmp	r3, #0
 8001226:	d17d      	bne.n	8001324 <HAL_RCC_OscConfig+0x438>
      {
        return HAL_ERROR;
 8001228:	2301      	movs	r3, #1
 800122a:	f000 bd30 	b.w	8001c8e <HAL_RCC_OscConfig+0xda2>
      }
    }
    else
    {
      /* Set the new HSE configuration ---------------------------------------*/
      __HAL_RCC_HSE_CONFIG(pRCC_OscInitStruct->HSEState);
 800122e:	687b      	ldr	r3, [r7, #4]
 8001230:	685b      	ldr	r3, [r3, #4]
 8001232:	f5b3 3f80 	cmp.w	r3, #65536	@ 0x10000
 8001236:	d106      	bne.n	8001246 <HAL_RCC_OscConfig+0x35a>
 8001238:	4b69      	ldr	r3, [pc, #420]	@ (80013e0 <HAL_RCC_OscConfig+0x4f4>)
 800123a:	681b      	ldr	r3, [r3, #0]
 800123c:	4a68      	ldr	r2, [pc, #416]	@ (80013e0 <HAL_RCC_OscConfig+0x4f4>)
 800123e:	f443 3380 	orr.w	r3, r3, #65536	@ 0x10000
 8001242:	6013      	str	r3, [r2, #0]
 8001244:	e041      	b.n	80012ca <HAL_RCC_OscConfig+0x3de>
 8001246:	687b      	ldr	r3, [r7, #4]
 8001248:	685b      	ldr	r3, [r3, #4]
 800124a:	f5b3 2fa0 	cmp.w	r3, #327680	@ 0x50000
 800124e:	d112      	bne.n	8001276 <HAL_RCC_OscConfig+0x38a>
 8001250:	4b63      	ldr	r3, [pc, #396]	@ (80013e0 <HAL_RCC_OscConfig+0x4f4>)
 8001252:	681b      	ldr	r3, [r3, #0]
 8001254:	4a62      	ldr	r2, [pc, #392]	@ (80013e0 <HAL_RCC_OscConfig+0x4f4>)
 8001256:	f443 2380 	orr.w	r3, r3, #262144	@ 0x40000
 800125a:	6013      	str	r3, [r2, #0]
 800125c:	4b60      	ldr	r3, [pc, #384]	@ (80013e0 <HAL_RCC_OscConfig+0x4f4>)
 800125e:	681b      	ldr	r3, [r3, #0]
 8001260:	4a5f      	ldr	r2, [pc, #380]	@ (80013e0 <HAL_RCC_OscConfig+0x4f4>)
 8001262:	f423 1380 	bic.w	r3, r3, #1048576	@ 0x100000
 8001266:	6013      	str	r3, [r2, #0]
 8001268:	4b5d      	ldr	r3, [pc, #372]	@ (80013e0 <HAL_RCC_OscConfig+0x4f4>)
 800126a:	681b      	ldr	r3, [r3, #0]
 800126c:	4a5c      	ldr	r2, [pc, #368]	@ (80013e0 <HAL_RCC_OscConfig+0x4f4>)
 800126e:	f443 3380 	orr.w	r3, r3, #65536	@ 0x10000
 8001272:	6013      	str	r3, [r2, #0]
 8001274:	e029      	b.n	80012ca <HAL_RCC_OscConfig+0x3de>
 8001276:	687b      	ldr	r3, [r7, #4]
 8001278:	685b      	ldr	r3, [r3, #4]
 800127a:	f5b3 1fa8 	cmp.w	r3, #1376256	@ 0x150000
 800127e:	d112      	bne.n	80012a6 <HAL_RCC_OscConfig+0x3ba>
 8001280:	4b57      	ldr	r3, [pc, #348]	@ (80013e0 <HAL_RCC_OscConfig+0x4f4>)
 8001282:	681b      	ldr	r3, [r3, #0]
 8001284:	4a56      	ldr	r2, [pc, #344]	@ (80013e0 <HAL_RCC_OscConfig+0x4f4>)
 8001286:	f443 2380 	orr.w	r3, r3, #262144	@ 0x40000
 800128a:	6013      	str	r3, [r2, #0]
 800128c:	4b54      	ldr	r3, [pc, #336]	@ (80013e0 <HAL_RCC_OscConfig+0x4f4>)
 800128e:	681b      	ldr	r3, [r3, #0]
 8001290:	4a53      	ldr	r2, [pc, #332]	@ (80013e0 <HAL_RCC_OscConfig+0x4f4>)
 8001292:	f443 1380 	orr.w	r3, r3, #1048576	@ 0x100000
 8001296:	6013      	str	r3, [r2, #0]
 8001298:	4b51      	ldr	r3, [pc, #324]	@ (80013e0 <HAL_RCC_OscConfig+0x4f4>)
 800129a:	681b      	ldr	r3, [r3, #0]
 800129c:	4a50      	ldr	r2, [pc, #320]	@ (80013e0 <HAL_RCC_OscConfig+0x4f4>)
 800129e:	f443 3380 	orr.w	r3, r3, #65536	@ 0x10000
 80012a2:	6013      	str	r3, [r2, #0]
 80012a4:	e011      	b.n	80012ca <HAL_RCC_OscConfig+0x3de>
 80012a6:	4b4e      	ldr	r3, [pc, #312]	@ (80013e0 <HAL_RCC_OscConfig+0x4f4>)
 80012a8:	681b      	ldr	r3, [r3, #0]
 80012aa:	4a4d      	ldr	r2, [pc, #308]	@ (80013e0 <HAL_RCC_OscConfig+0x4f4>)
 80012ac:	f423 3380 	bic.w	r3, r3, #65536	@ 0x10000
 80012b0:	6013      	str	r3, [r2, #0]
 80012b2:	4b4b      	ldr	r3, [pc, #300]	@ (80013e0 <HAL_RCC_OscConfig+0x4f4>)
 80012b4:	681b      	ldr	r3, [r3, #0]
 80012b6:	4a4a      	ldr	r2, [pc, #296]	@ (80013e0 <HAL_RCC_OscConfig+0x4f4>)
 80012b8:	f423 2380 	bic.w	r3, r3, #262144	@ 0x40000
 80012bc:	6013      	str	r3, [r2, #0]
 80012be:	4b48      	ldr	r3, [pc, #288]	@ (80013e0 <HAL_RCC_OscConfig+0x4f4>)
 80012c0:	681b      	ldr	r3, [r3, #0]
 80012c2:	4a47      	ldr	r2, [pc, #284]	@ (80013e0 <HAL_RCC_OscConfig+0x4f4>)
 80012c4:	f423 1380 	bic.w	r3, r3, #1048576	@ 0x100000
 80012c8:	6013      	str	r3, [r2, #0]

      /* Check the HSE State */
      if (pRCC_OscInitStruct->HSEState != RCC_HSE_OFF)
 80012ca:	687b      	ldr	r3, [r7, #4]
 80012cc:	685b      	ldr	r3, [r3, #4]
 80012ce:	2b00      	cmp	r3, #0
 80012d0:	d014      	beq.n	80012fc <HAL_RCC_OscConfig+0x410>
      {
        tickstart = HAL_GetTick();
 80012d2:	f7ff f9a9 	bl	8000628 <HAL_GetTick>
 80012d6:	62b8      	str	r0, [r7, #40]	@ 0x28

        /* Wait till HSE is ready */
        while (READ_BIT(RCC->CR, RCC_CR_HSERDY) == 0U)
 80012d8:	e009      	b.n	80012ee <HAL_RCC_OscConfig+0x402>
        {
          if ((HAL_GetTick() - tickstart) > HSE_TIMEOUT_VALUE)
 80012da:	f7ff f9a5 	bl	8000628 <HAL_GetTick>
 80012de:	4602      	mov	r2, r0
 80012e0:	6abb      	ldr	r3, [r7, #40]	@ 0x28
 80012e2:	1ad3      	subs	r3, r2, r3
 80012e4:	2b64      	cmp	r3, #100	@ 0x64
 80012e6:	d902      	bls.n	80012ee <HAL_RCC_OscConfig+0x402>
          {
            return HAL_TIMEOUT;
 80012e8:	2303      	movs	r3, #3
 80012ea:	f000 bcd0 	b.w	8001c8e <HAL_RCC_OscConfig+0xda2>
        while (READ_BIT(RCC->CR, RCC_CR_HSERDY) == 0U)
 80012ee:	4b3c      	ldr	r3, [pc, #240]	@ (80013e0 <HAL_RCC_OscConfig+0x4f4>)
 80012f0:	681b      	ldr	r3, [r3, #0]
 80012f2:	f403 3300 	and.w	r3, r3, #131072	@ 0x20000
 80012f6:	2b00      	cmp	r3, #0
 80012f8:	d0ef      	beq.n	80012da <HAL_RCC_OscConfig+0x3ee>
 80012fa:	e013      	b.n	8001324 <HAL_RCC_OscConfig+0x438>
          }
        }
      }
      else
      {
        tickstart = HAL_GetTick();
 80012fc:	f7ff f994 	bl	8000628 <HAL_GetTick>
 8001300:	62b8      	str	r0, [r7, #40]	@ 0x28

        /* Wait till HSE is disabled */
        while (READ_BIT(RCC->CR, RCC_CR_HSERDY) != 0U)
 8001302:	e009      	b.n	8001318 <HAL_RCC_OscConfig+0x42c>
        {
          if ((HAL_GetTick() - tickstart) > HSE_TIMEOUT_VALUE)
 8001304:	f7ff f990 	bl	8000628 <HAL_GetTick>
 8001308:	4602      	mov	r2, r0
 800130a:	6abb      	ldr	r3, [r7, #40]	@ 0x28
 800130c:	1ad3      	subs	r3, r2, r3
 800130e:	2b64      	cmp	r3, #100	@ 0x64
 8001310:	d902      	bls.n	8001318 <HAL_RCC_OscConfig+0x42c>
          {
            return HAL_TIMEOUT;
 8001312:	2303      	movs	r3, #3
 8001314:	f000 bcbb 	b.w	8001c8e <HAL_RCC_OscConfig+0xda2>
        while (READ_BIT(RCC->CR, RCC_CR_HSERDY) != 0U)
 8001318:	4b31      	ldr	r3, [pc, #196]	@ (80013e0 <HAL_RCC_OscConfig+0x4f4>)
 800131a:	681b      	ldr	r3, [r3, #0]
 800131c:	f403 3300 	and.w	r3, r3, #131072	@ 0x20000
 8001320:	2b00      	cmp	r3, #0
 8001322:	d1ef      	bne.n	8001304 <HAL_RCC_OscConfig+0x418>
        }
      }
    }
  }
  /*----------------------------- HSI Configuration --------------------------*/
  if (((pRCC_OscInitStruct->OscillatorType) & RCC_OSCILLATORTYPE_HSI) == RCC_OSCILLATORTYPE_HSI)
 8001324:	687b      	ldr	r3, [r7, #4]
 8001326:	681b      	ldr	r3, [r3, #0]
 8001328:	f003 0302 	and.w	r3, r3, #2
 800132c:	2b00      	cmp	r3, #0
 800132e:	d05f      	beq.n	80013f0 <HAL_RCC_OscConfig+0x504>
    /* Check the parameters */
    assert_param(IS_RCC_HSI(pRCC_OscInitStruct->HSIState));
    assert_param(IS_RCC_HSI_CALIBRATION_VALUE(pRCC_OscInitStruct->HSICalibrationValue));

    /* Check if HSI is used as system clock or as PLL source when PLL is selected as system clock */
    if ((sysclk_source == RCC_SYSCLKSOURCE_STATUS_HSI) ||
 8001330:	6b3b      	ldr	r3, [r7, #48]	@ 0x30
 8001332:	2b04      	cmp	r3, #4
 8001334:	d005      	beq.n	8001342 <HAL_RCC_OscConfig+0x456>
 8001336:	6b3b      	ldr	r3, [r7, #48]	@ 0x30
 8001338:	2b0c      	cmp	r3, #12
 800133a:	d114      	bne.n	8001366 <HAL_RCC_OscConfig+0x47a>
        ((sysclk_source == RCC_SYSCLKSOURCE_STATUS_PLLCLK) && (pll_config == RCC_PLLSOURCE_HSI)))
 800133c:	6afb      	ldr	r3, [r7, #44]	@ 0x2c
 800133e:	2b02      	cmp	r3, #2
 8001340:	d111      	bne.n	8001366 <HAL_RCC_OscConfig+0x47a>
    {
      /* When HSI is used as system clock it will not be disabled */
      if (pRCC_OscInitStruct->HSIState == RCC_HSI_OFF)
 8001342:	687b      	ldr	r3, [r7, #4]
 8001344:	68db      	ldr	r3, [r3, #12]
 8001346:	2b00      	cmp	r3, #0
 8001348:	d102      	bne.n	8001350 <HAL_RCC_OscConfig+0x464>
      {
        return HAL_ERROR;
 800134a:	2301      	movs	r3, #1
 800134c:	f000 bc9f 	b.w	8001c8e <HAL_RCC_OscConfig+0xda2>
      }
      /* Otherwise, just the calibration is allowed */
      else
      {
        /* Adjusts the Internal High Speed oscillator (HSI) calibration value */
        __HAL_RCC_HSI_CALIBRATIONVALUE_ADJUST(pRCC_OscInitStruct->HSICalibrationValue);
 8001350:	4b23      	ldr	r3, [pc, #140]	@ (80013e0 <HAL_RCC_OscConfig+0x4f4>)
 8001352:	691b      	ldr	r3, [r3, #16]
 8001354:	f423 12f8 	bic.w	r2, r3, #2031616	@ 0x1f0000
 8001358:	687b      	ldr	r3, [r7, #4]
 800135a:	691b      	ldr	r3, [r3, #16]
 800135c:	041b      	lsls	r3, r3, #16
 800135e:	4920      	ldr	r1, [pc, #128]	@ (80013e0 <HAL_RCC_OscConfig+0x4f4>)
 8001360:	4313      	orrs	r3, r2
 8001362:	610b      	str	r3, [r1, #16]
      if (pRCC_OscInitStruct->HSIState == RCC_HSI_OFF)
 8001364:	e044      	b.n	80013f0 <HAL_RCC_OscConfig+0x504>
      }
    }
    else
    {
      /* Check the HSI State */
      if (pRCC_OscInitStruct->HSIState != RCC_HSI_OFF)
 8001366:	687b      	ldr	r3, [r7, #4]
 8001368:	68db      	ldr	r3, [r3, #12]
 800136a:	2b00      	cmp	r3, #0
 800136c:	d024      	beq.n	80013b8 <HAL_RCC_OscConfig+0x4cc>
      {
        /* Enable the Internal High Speed oscillator (HSI) */
        __HAL_RCC_HSI_ENABLE();
 800136e:	4b1c      	ldr	r3, [pc, #112]	@ (80013e0 <HAL_RCC_OscConfig+0x4f4>)
 8001370:	681b      	ldr	r3, [r3, #0]
 8001372:	4a1b      	ldr	r2, [pc, #108]	@ (80013e0 <HAL_RCC_OscConfig+0x4f4>)
 8001374:	f443 7380 	orr.w	r3, r3, #256	@ 0x100
 8001378:	6013      	str	r3, [r2, #0]

        tickstart = HAL_GetTick();
 800137a:	f7ff f955 	bl	8000628 <HAL_GetTick>
 800137e:	62b8      	str	r0, [r7, #40]	@ 0x28

        /* Wait till HSI is ready */
        while (READ_BIT(RCC->CR, RCC_CR_HSIRDY) == 0U)
 8001380:	e009      	b.n	8001396 <HAL_RCC_OscConfig+0x4aa>
        {
          if ((HAL_GetTick() - tickstart) > HSI_TIMEOUT_VALUE)
 8001382:	f7ff f951 	bl	8000628 <HAL_GetTick>
 8001386:	4602      	mov	r2, r0
 8001388:	6abb      	ldr	r3, [r7, #40]	@ 0x28
 800138a:	1ad3      	subs	r3, r2, r3
 800138c:	2b02      	cmp	r3, #2
 800138e:	d902      	bls.n	8001396 <HAL_RCC_OscConfig+0x4aa>
          {
            return HAL_TIMEOUT;
 8001390:	2303      	movs	r3, #3
 8001392:	f000 bc7c 	b.w	8001c8e <HAL_RCC_OscConfig+0xda2>
        while (READ_BIT(RCC->CR, RCC_CR_HSIRDY) == 0U)
 8001396:	4b12      	ldr	r3, [pc, #72]	@ (80013e0 <HAL_RCC_OscConfig+0x4f4>)
 8001398:	681b      	ldr	r3, [r3, #0]
 800139a:	f403 6380 	and.w	r3, r3, #1024	@ 0x400
 800139e:	2b00      	cmp	r3, #0
 80013a0:	d0ef      	beq.n	8001382 <HAL_RCC_OscConfig+0x496>
          }
        }

        /* Adjusts the Internal High Speed oscillator (HSI) calibration value */
        __HAL_RCC_HSI_CALIBRATIONVALUE_ADJUST(pRCC_OscInitStruct->HSICalibrationValue);
 80013a2:	4b0f      	ldr	r3, [pc, #60]	@ (80013e0 <HAL_RCC_OscConfig+0x4f4>)
 80013a4:	691b      	ldr	r3, [r3, #16]
 80013a6:	f423 12f8 	bic.w	r2, r3, #2031616	@ 0x1f0000
 80013aa:	687b      	ldr	r3, [r7, #4]
 80013ac:	691b      	ldr	r3, [r3, #16]
 80013ae:	041b      	lsls	r3, r3, #16
 80013b0:	490b      	ldr	r1, [pc, #44]	@ (80013e0 <HAL_RCC_OscConfig+0x4f4>)
 80013b2:	4313      	orrs	r3, r2
 80013b4:	610b      	str	r3, [r1, #16]
 80013b6:	e01b      	b.n	80013f0 <HAL_RCC_OscConfig+0x504>
      }
      else
      {
        /* Disable the Internal High Speed oscillator (HSI) */
        __HAL_RCC_HSI_DISABLE();
 80013b8:	4b09      	ldr	r3, [pc, #36]	@ (80013e0 <HAL_RCC_OscConfig+0x4f4>)
 80013ba:	681b      	ldr	r3, [r3, #0]
 80013bc:	4a08      	ldr	r2, [pc, #32]	@ (80013e0 <HAL_RCC_OscConfig+0x4f4>)
 80013be:	f423 7380 	bic.w	r3, r3, #256	@ 0x100
 80013c2:	6013      	str	r3, [r2, #0]

        tickstart = HAL_GetTick();
 80013c4:	f7ff f930 	bl	8000628 <HAL_GetTick>
 80013c8:	62b8      	str	r0, [r7, #40]	@ 0x28

        /* Wait till HSI is disabled */
        while (READ_BIT(RCC->CR, RCC_CR_HSIRDY) != 0U)
 80013ca:	e00b      	b.n	80013e4 <HAL_RCC_OscConfig+0x4f8>
        {
          if ((HAL_GetTick() - tickstart) > HSI_TIMEOUT_VALUE)
 80013cc:	f7ff f92c 	bl	8000628 <HAL_GetTick>
 80013d0:	4602      	mov	r2, r0
 80013d2:	6abb      	ldr	r3, [r7, #40]	@ 0x28
 80013d4:	1ad3      	subs	r3, r2, r3
 80013d6:	2b02      	cmp	r3, #2
 80013d8:	d904      	bls.n	80013e4 <HAL_RCC_OscConfig+0x4f8>
          {
            return HAL_TIMEOUT;
 80013da:	2303      	movs	r3, #3
 80013dc:	f000 bc57 	b.w	8001c8e <HAL_RCC_OscConfig+0xda2>
 80013e0:	46020c00 	.word	0x46020c00
        while (READ_BIT(RCC->CR, RCC_CR_HSIRDY) != 0U)
 80013e4:	4baf      	ldr	r3, [pc, #700]	@ (80016a4 <HAL_RCC_OscConfig+0x7b8>)
 80013e6:	681b      	ldr	r3, [r3, #0]
 80013e8:	f403 6380 	and.w	r3, r3, #1024	@ 0x400
 80013ec:	2b00      	cmp	r3, #0
 80013ee:	d1ed      	bne.n	80013cc <HAL_RCC_OscConfig+0x4e0>
        }
      }
    }
  }
  /*------------------------------ LSI Configuration -------------------------*/
  if (((pRCC_OscInitStruct->OscillatorType) & RCC_OSCILLATORTYPE_LSI) == RCC_OSCILLATORTYPE_LSI)
 80013f0:	687b      	ldr	r3, [r7, #4]
 80013f2:	681b      	ldr	r3, [r3, #0]
 80013f4:	f003 0308 	and.w	r3, r3, #8
 80013f8:	2b00      	cmp	r3, #0
 80013fa:	f000 80c8 	beq.w	800158e <HAL_RCC_OscConfig+0x6a2>
  {
    /* Check the parameters */
    assert_param(IS_RCC_LSI(pRCC_OscInitStruct->LSIState));

    FlagStatus  pwrclkchanged = RESET;
 80013fe:	2300      	movs	r3, #0
 8001400:	f887 3036 	strb.w	r3, [r7, #54]	@ 0x36

    /* Update LSI configuration in Backup Domain control register    */
    /* Requires to enable write access to Backup Domain of necessary */
    if (__HAL_RCC_PWR_IS_CLK_DISABLED())
 8001404:	4ba7      	ldr	r3, [pc, #668]	@ (80016a4 <HAL_RCC_OscConfig+0x7b8>)
 8001406:	f8d3 3094 	ldr.w	r3, [r3, #148]	@ 0x94
 800140a:	f003 0304 	and.w	r3, r3, #4
 800140e:	2b00      	cmp	r3, #0
 8001410:	d111      	bne.n	8001436 <HAL_RCC_OscConfig+0x54a>
    {
      __HAL_RCC_PWR_CLK_ENABLE();
 8001412:	4ba4      	ldr	r3, [pc, #656]	@ (80016a4 <HAL_RCC_OscConfig+0x7b8>)
 8001414:	f8d3 3094 	ldr.w	r3, [r3, #148]	@ 0x94
 8001418:	4aa2      	ldr	r2, [pc, #648]	@ (80016a4 <HAL_RCC_OscConfig+0x7b8>)
 800141a:	f043 0304 	orr.w	r3, r3, #4
 800141e:	f8c2 3094 	str.w	r3, [r2, #148]	@ 0x94
 8001422:	4ba0      	ldr	r3, [pc, #640]	@ (80016a4 <HAL_RCC_OscConfig+0x7b8>)
 8001424:	f8d3 3094 	ldr.w	r3, [r3, #148]	@ 0x94
 8001428:	f003 0304 	and.w	r3, r3, #4
 800142c:	617b      	str	r3, [r7, #20]
 800142e:	697b      	ldr	r3, [r7, #20]
      pwrclkchanged = SET;
 8001430:	2301      	movs	r3, #1
 8001432:	f887 3036 	strb.w	r3, [r7, #54]	@ 0x36
    }

    if (HAL_IS_BIT_CLR(PWR->DBPR, PWR_DBPR_DBP))
 8001436:	4b9c      	ldr	r3, [pc, #624]	@ (80016a8 <HAL_RCC_OscConfig+0x7bc>)
 8001438:	6a9b      	ldr	r3, [r3, #40]	@ 0x28
 800143a:	f003 0301 	and.w	r3, r3, #1
 800143e:	2b00      	cmp	r3, #0
 8001440:	d119      	bne.n	8001476 <HAL_RCC_OscConfig+0x58a>
    {
      /* Enable write access to Backup domain */
      SET_BIT(PWR->DBPR, PWR_DBPR_DBP);
 8001442:	4b99      	ldr	r3, [pc, #612]	@ (80016a8 <HAL_RCC_OscConfig+0x7bc>)
 8001444:	6a9b      	ldr	r3, [r3, #40]	@ 0x28
 8001446:	4a98      	ldr	r2, [pc, #608]	@ (80016a8 <HAL_RCC_OscConfig+0x7bc>)
 8001448:	f043 0301 	orr.w	r3, r3, #1
 800144c:	6293      	str	r3, [r2, #40]	@ 0x28

      /* Wait for Backup domain Write protection disable */
      tickstart = HAL_GetTick();
 800144e:	f7ff f8eb 	bl	8000628 <HAL_GetTick>
 8001452:	62b8      	str	r0, [r7, #40]	@ 0x28

      while (HAL_IS_BIT_CLR(PWR->DBPR, PWR_DBPR_DBP))
 8001454:	e009      	b.n	800146a <HAL_RCC_OscConfig+0x57e>
      {
        if ((HAL_GetTick() - tickstart) > RCC_DBP_TIMEOUT_VALUE)
 8001456:	f7ff f8e7 	bl	8000628 <HAL_GetTick>
 800145a:	4602      	mov	r2, r0
 800145c:	6abb      	ldr	r3, [r7, #40]	@ 0x28
 800145e:	1ad3      	subs	r3, r2, r3
 8001460:	2b02      	cmp	r3, #2
 8001462:	d902      	bls.n	800146a <HAL_RCC_OscConfig+0x57e>
        {
          return HAL_TIMEOUT;
 8001464:	2303      	movs	r3, #3
 8001466:	f000 bc12 	b.w	8001c8e <HAL_RCC_OscConfig+0xda2>
      while (HAL_IS_BIT_CLR(PWR->DBPR, PWR_DBPR_DBP))
 800146a:	4b8f      	ldr	r3, [pc, #572]	@ (80016a8 <HAL_RCC_OscConfig+0x7bc>)
 800146c:	6a9b      	ldr	r3, [r3, #40]	@ 0x28
 800146e:	f003 0301 	and.w	r3, r3, #1
 8001472:	2b00      	cmp	r3, #0
 8001474:	d0ef      	beq.n	8001456 <HAL_RCC_OscConfig+0x56a>
        }
      }
    }
    /* Check the LSI State */
    if (pRCC_OscInitStruct->LSIState != RCC_LSI_OFF)
 8001476:	687b      	ldr	r3, [r7, #4]
 8001478:	695b      	ldr	r3, [r3, #20]
 800147a:	2b00      	cmp	r3, #0
 800147c:	d05f      	beq.n	800153e <HAL_RCC_OscConfig+0x652>
    {
      uint32_t bdcr_temp = RCC->BDCR;
 800147e:	4b89      	ldr	r3, [pc, #548]	@ (80016a4 <HAL_RCC_OscConfig+0x7b8>)
 8001480:	f8d3 30f0 	ldr.w	r3, [r3, #240]	@ 0xf0
 8001484:	623b      	str	r3, [r7, #32]

      /* Check LSI division factor */
      assert_param(IS_RCC_LSIDIV(pRCC_OscInitStruct->LSIDiv));

      if (pRCC_OscInitStruct->LSIDiv != (bdcr_temp & RCC_BDCR_LSIPREDIV))
 8001486:	687b      	ldr	r3, [r7, #4]
 8001488:	699a      	ldr	r2, [r3, #24]
 800148a:	6a3b      	ldr	r3, [r7, #32]
 800148c:	f003 5380 	and.w	r3, r3, #268435456	@ 0x10000000
 8001490:	429a      	cmp	r2, r3
 8001492:	d037      	beq.n	8001504 <HAL_RCC_OscConfig+0x618>
      {
        if (((bdcr_temp & RCC_BDCR_LSIRDY) == RCC_BDCR_LSIRDY) && \
 8001494:	6a3b      	ldr	r3, [r7, #32]
 8001496:	f003 6300 	and.w	r3, r3, #134217728	@ 0x8000000
 800149a:	2b00      	cmp	r3, #0
 800149c:	d006      	beq.n	80014ac <HAL_RCC_OscConfig+0x5c0>
            ((bdcr_temp & RCC_BDCR_LSION) != RCC_BDCR_LSION))
 800149e:	6a3b      	ldr	r3, [r7, #32]
 80014a0:	f003 6380 	and.w	r3, r3, #67108864	@ 0x4000000
        if (((bdcr_temp & RCC_BDCR_LSIRDY) == RCC_BDCR_LSIRDY) && \
 80014a4:	2b00      	cmp	r3, #0
 80014a6:	d101      	bne.n	80014ac <HAL_RCC_OscConfig+0x5c0>
        {
          /* If LSIRDY is set while LSION is not enabled, LSIPREDIV can't be updated */
          /* The LSIPREDIV cannot be changed if the LSI is used by the IWDG or by the RTC */
          return HAL_ERROR;
 80014a8:	2301      	movs	r3, #1
 80014aa:	e3f0      	b.n	8001c8e <HAL_RCC_OscConfig+0xda2>
        }

        /* Turn off LSI before changing RCC_BDCR_LSIPREDIV */
        if ((bdcr_temp & RCC_BDCR_LSION) == RCC_BDCR_LSION)
 80014ac:	6a3b      	ldr	r3, [r7, #32]
 80014ae:	f003 6380 	and.w	r3, r3, #67108864	@ 0x4000000
 80014b2:	2b00      	cmp	r3, #0
 80014b4:	d01b      	beq.n	80014ee <HAL_RCC_OscConfig+0x602>
        {
          __HAL_RCC_LSI_DISABLE();
 80014b6:	4b7b      	ldr	r3, [pc, #492]	@ (80016a4 <HAL_RCC_OscConfig+0x7b8>)
 80014b8:	f8d3 30f0 	ldr.w	r3, [r3, #240]	@ 0xf0
 80014bc:	4a79      	ldr	r2, [pc, #484]	@ (80016a4 <HAL_RCC_OscConfig+0x7b8>)
 80014be:	f023 53a0 	bic.w	r3, r3, #335544320	@ 0x14000000
 80014c2:	f8c2 30f0 	str.w	r3, [r2, #240]	@ 0xf0

          tickstart = HAL_GetTick();
 80014c6:	f7ff f8af 	bl	8000628 <HAL_GetTick>
 80014ca:	62b8      	str	r0, [r7, #40]	@ 0x28

          /* Wait till LSI is disabled */
          while (READ_BIT(RCC->BDCR, RCC_BDCR_LSIRDY) != 0U)
 80014cc:	e008      	b.n	80014e0 <HAL_RCC_OscConfig+0x5f4>
          {
            if ((HAL_GetTick() - tickstart) > LSI_TIMEOUT_VALUE)
 80014ce:	f7ff f8ab 	bl	8000628 <HAL_GetTick>
 80014d2:	4602      	mov	r2, r0
 80014d4:	6abb      	ldr	r3, [r7, #40]	@ 0x28
 80014d6:	1ad3      	subs	r3, r2, r3
 80014d8:	2b05      	cmp	r3, #5
 80014da:	d901      	bls.n	80014e0 <HAL_RCC_OscConfig+0x5f4>
            {
              return HAL_TIMEOUT;
 80014dc:	2303      	movs	r3, #3
 80014de:	e3d6      	b.n	8001c8e <HAL_RCC_OscConfig+0xda2>
          while (READ_BIT(RCC->BDCR, RCC_BDCR_LSIRDY) != 0U)
 80014e0:	4b70      	ldr	r3, [pc, #448]	@ (80016a4 <HAL_RCC_OscConfig+0x7b8>)
 80014e2:	f8d3 30f0 	ldr.w	r3, [r3, #240]	@ 0xf0
 80014e6:	f003 6300 	and.w	r3, r3, #134217728	@ 0x8000000
 80014ea:	2b00      	cmp	r3, #0
 80014ec:	d1ef      	bne.n	80014ce <HAL_RCC_OscConfig+0x5e2>
            }
          }
        }

        /* Set LSI division factor */
        MODIFY_REG(RCC->BDCR, RCC_BDCR_LSIPREDIV, pRCC_OscInitStruct->LSIDiv);
 80014ee:	4b6d      	ldr	r3, [pc, #436]	@ (80016a4 <HAL_RCC_OscConfig+0x7b8>)
 80014f0:	f8d3 30f0 	ldr.w	r3, [r3, #240]	@ 0xf0
 80014f4:	f023 5280 	bic.w	r2, r3, #268435456	@ 0x10000000
 80014f8:	687b      	ldr	r3, [r7, #4]
 80014fa:	699b      	ldr	r3, [r3, #24]
 80014fc:	4969      	ldr	r1, [pc, #420]	@ (80016a4 <HAL_RCC_OscConfig+0x7b8>)
 80014fe:	4313      	orrs	r3, r2
 8001500:	f8c1 30f0 	str.w	r3, [r1, #240]	@ 0xf0
      }

      /* Enable the Internal Low Speed oscillator (LSI) */
      __HAL_RCC_LSI_ENABLE();
 8001504:	4b67      	ldr	r3, [pc, #412]	@ (80016a4 <HAL_RCC_OscConfig+0x7b8>)
 8001506:	f8d3 30f0 	ldr.w	r3, [r3, #240]	@ 0xf0
 800150a:	4a66      	ldr	r2, [pc, #408]	@ (80016a4 <HAL_RCC_OscConfig+0x7b8>)
 800150c:	f043 6380 	orr.w	r3, r3, #67108864	@ 0x4000000
 8001510:	f8c2 30f0 	str.w	r3, [r2, #240]	@ 0xf0

      tickstart = HAL_GetTick();
 8001514:	f7ff f888 	bl	8000628 <HAL_GetTick>
 8001518:	62b8      	str	r0, [r7, #40]	@ 0x28

      /* Wait till LSI is ready */
      while (READ_BIT(RCC->BDCR, RCC_BDCR_LSIRDY) == 0U)
 800151a:	e008      	b.n	800152e <HAL_RCC_OscConfig+0x642>
      {
        if ((HAL_GetTick() - tickstart) > LSI_TIMEOUT_VALUE)
 800151c:	f7ff f884 	bl	8000628 <HAL_GetTick>
 8001520:	4602      	mov	r2, r0
 8001522:	6abb      	ldr	r3, [r7, #40]	@ 0x28
 8001524:	1ad3      	subs	r3, r2, r3
 8001526:	2b05      	cmp	r3, #5
 8001528:	d901      	bls.n	800152e <HAL_RCC_OscConfig+0x642>
        {
          return HAL_TIMEOUT;
 800152a:	2303      	movs	r3, #3
 800152c:	e3af      	b.n	8001c8e <HAL_RCC_OscConfig+0xda2>
      while (READ_BIT(RCC->BDCR, RCC_BDCR_LSIRDY) == 0U)
 800152e:	4b5d      	ldr	r3, [pc, #372]	@ (80016a4 <HAL_RCC_OscConfig+0x7b8>)
 8001530:	f8d3 30f0 	ldr.w	r3, [r3, #240]	@ 0xf0
 8001534:	f003 6300 	and.w	r3, r3, #134217728	@ 0x8000000
 8001538:	2b00      	cmp	r3, #0
 800153a:	d0ef      	beq.n	800151c <HAL_RCC_OscConfig+0x630>
 800153c:	e01b      	b.n	8001576 <HAL_RCC_OscConfig+0x68a>
      }
    }
    else
    {
      /* Disable the Internal Low Speed oscillator (LSI) */
      __HAL_RCC_LSI_DISABLE();
 800153e:	4b59      	ldr	r3, [pc, #356]	@ (80016a4 <HAL_RCC_OscConfig+0x7b8>)
 8001540:	f8d3 30f0 	ldr.w	r3, [r3, #240]	@ 0xf0
 8001544:	4a57      	ldr	r2, [pc, #348]	@ (80016a4 <HAL_RCC_OscConfig+0x7b8>)
 8001546:	f023 53a0 	bic.w	r3, r3, #335544320	@ 0x14000000
 800154a:	f8c2 30f0 	str.w	r3, [r2, #240]	@ 0xf0

      tickstart = HAL_GetTick();
 800154e:	f7ff f86b 	bl	8000628 <HAL_GetTick>
 8001552:	62b8      	str	r0, [r7, #40]	@ 0x28

      /* Wait till LSI is disabled */
      while (READ_BIT(RCC->BDCR, RCC_BDCR_LSIRDY) != 0U)
 8001554:	e008      	b.n	8001568 <HAL_RCC_OscConfig+0x67c>
      {
        if ((HAL_GetTick() - tickstart) > LSI_TIMEOUT_VALUE)
 8001556:	f7ff f867 	bl	8000628 <HAL_GetTick>
 800155a:	4602      	mov	r2, r0
 800155c:	6abb      	ldr	r3, [r7, #40]	@ 0x28
 800155e:	1ad3      	subs	r3, r2, r3
 8001560:	2b05      	cmp	r3, #5
 8001562:	d901      	bls.n	8001568 <HAL_RCC_OscConfig+0x67c>
        {
          return HAL_TIMEOUT;
 8001564:	2303      	movs	r3, #3
 8001566:	e392      	b.n	8001c8e <HAL_RCC_OscConfig+0xda2>
      while (READ_BIT(RCC->BDCR, RCC_BDCR_LSIRDY) != 0U)
 8001568:	4b4e      	ldr	r3, [pc, #312]	@ (80016a4 <HAL_RCC_OscConfig+0x7b8>)
 800156a:	f8d3 30f0 	ldr.w	r3, [r3, #240]	@ 0xf0
 800156e:	f003 6300 	and.w	r3, r3, #134217728	@ 0x8000000
 8001572:	2b00      	cmp	r3, #0
 8001574:	d1ef      	bne.n	8001556 <HAL_RCC_OscConfig+0x66a>
        }
      }
    }
    /* Restore clock configuration if changed */
    if (pwrclkchanged == SET)
 8001576:	f897 3036 	ldrb.w	r3, [r7, #54]	@ 0x36
 800157a:	2b01      	cmp	r3, #1
 800157c:	d107      	bne.n	800158e <HAL_RCC_OscConfig+0x6a2>
    {
      __HAL_RCC_PWR_CLK_DISABLE();
 800157e:	4b49      	ldr	r3, [pc, #292]	@ (80016a4 <HAL_RCC_OscConfig+0x7b8>)
 8001580:	f8d3 3094 	ldr.w	r3, [r3, #148]	@ 0x94
 8001584:	4a47      	ldr	r2, [pc, #284]	@ (80016a4 <HAL_RCC_OscConfig+0x7b8>)
 8001586:	f023 0304 	bic.w	r3, r3, #4
 800158a:	f8c2 3094 	str.w	r3, [r2, #148]	@ 0x94
    }
  }
  /*------------------------------ LSE Configuration -------------------------*/
  if (((pRCC_OscInitStruct->OscillatorType) & RCC_OSCILLATORTYPE_LSE) == RCC_OSCILLATORTYPE_LSE)
 800158e:	687b      	ldr	r3, [r7, #4]
 8001590:	681b      	ldr	r3, [r3, #0]
 8001592:	f003 0304 	and.w	r3, r3, #4
 8001596:	2b00      	cmp	r3, #0
 8001598:	f000 810d 	beq.w	80017b6 <HAL_RCC_OscConfig+0x8ca>
  {
    FlagStatus pwrclkchanged = RESET;
 800159c:	2300      	movs	r3, #0
 800159e:	f887 3035 	strb.w	r3, [r7, #53]	@ 0x35
    /* Check the parameters */
    assert_param(IS_RCC_LSE(pRCC_OscInitStruct->LSEState));

    /* Update LSE configuration in Backup Domain control register    */
    /* Requires to enable write access to Backup Domain of necessary */
    if (__HAL_RCC_PWR_IS_CLK_DISABLED())
 80015a2:	4b40      	ldr	r3, [pc, #256]	@ (80016a4 <HAL_RCC_OscConfig+0x7b8>)
 80015a4:	f8d3 3094 	ldr.w	r3, [r3, #148]	@ 0x94
 80015a8:	f003 0304 	and.w	r3, r3, #4
 80015ac:	2b00      	cmp	r3, #0
 80015ae:	d111      	bne.n	80015d4 <HAL_RCC_OscConfig+0x6e8>
    {
      __HAL_RCC_PWR_CLK_ENABLE();
 80015b0:	4b3c      	ldr	r3, [pc, #240]	@ (80016a4 <HAL_RCC_OscConfig+0x7b8>)
 80015b2:	f8d3 3094 	ldr.w	r3, [r3, #148]	@ 0x94
 80015b6:	4a3b      	ldr	r2, [pc, #236]	@ (80016a4 <HAL_RCC_OscConfig+0x7b8>)
 80015b8:	f043 0304 	orr.w	r3, r3, #4
 80015bc:	f8c2 3094 	str.w	r3, [r2, #148]	@ 0x94
 80015c0:	4b38      	ldr	r3, [pc, #224]	@ (80016a4 <HAL_RCC_OscConfig+0x7b8>)
 80015c2:	f8d3 3094 	ldr.w	r3, [r3, #148]	@ 0x94
 80015c6:	f003 0304 	and.w	r3, r3, #4
 80015ca:	613b      	str	r3, [r7, #16]
 80015cc:	693b      	ldr	r3, [r7, #16]
      pwrclkchanged = SET;
 80015ce:	2301      	movs	r3, #1
 80015d0:	f887 3035 	strb.w	r3, [r7, #53]	@ 0x35
    }

    if (HAL_IS_BIT_CLR(PWR->DBPR, PWR_DBPR_DBP))
 80015d4:	4b34      	ldr	r3, [pc, #208]	@ (80016a8 <HAL_RCC_OscConfig+0x7bc>)
 80015d6:	6a9b      	ldr	r3, [r3, #40]	@ 0x28
 80015d8:	f003 0301 	and.w	r3, r3, #1
 80015dc:	2b00      	cmp	r3, #0
 80015de:	d118      	bne.n	8001612 <HAL_RCC_OscConfig+0x726>
    {
      /* Enable write access to Backup domain */
      SET_BIT(PWR->DBPR, PWR_DBPR_DBP);
 80015e0:	4b31      	ldr	r3, [pc, #196]	@ (80016a8 <HAL_RCC_OscConfig+0x7bc>)
 80015e2:	6a9b      	ldr	r3, [r3, #40]	@ 0x28
 80015e4:	4a30      	ldr	r2, [pc, #192]	@ (80016a8 <HAL_RCC_OscConfig+0x7bc>)
 80015e6:	f043 0301 	orr.w	r3, r3, #1
 80015ea:	6293      	str	r3, [r2, #40]	@ 0x28

      /* Wait for Backup domain Write protection disable */
      tickstart = HAL_GetTick();
 80015ec:	f7ff f81c 	bl	8000628 <HAL_GetTick>
 80015f0:	62b8      	str	r0, [r7, #40]	@ 0x28

      while (HAL_IS_BIT_CLR(PWR->DBPR, PWR_DBPR_DBP))
 80015f2:	e008      	b.n	8001606 <HAL_RCC_OscConfig+0x71a>
      {
        if ((HAL_GetTick() - tickstart) > RCC_DBP_TIMEOUT_VALUE)
 80015f4:	f7ff f818 	bl	8000628 <HAL_GetTick>
 80015f8:	4602      	mov	r2, r0
 80015fa:	6abb      	ldr	r3, [r7, #40]	@ 0x28
 80015fc:	1ad3      	subs	r3, r2, r3
 80015fe:	2b02      	cmp	r3, #2
 8001600:	d901      	bls.n	8001606 <HAL_RCC_OscConfig+0x71a>
        {
          return HAL_TIMEOUT;
 8001602:	2303      	movs	r3, #3
 8001604:	e343      	b.n	8001c8e <HAL_RCC_OscConfig+0xda2>
      while (HAL_IS_BIT_CLR(PWR->DBPR, PWR_DBPR_DBP))
 8001606:	4b28      	ldr	r3, [pc, #160]	@ (80016a8 <HAL_RCC_OscConfig+0x7bc>)
 8001608:	6a9b      	ldr	r3, [r3, #40]	@ 0x28
 800160a:	f003 0301 	and.w	r3, r3, #1
 800160e:	2b00      	cmp	r3, #0
 8001610:	d0f0      	beq.n	80015f4 <HAL_RCC_OscConfig+0x708>
        }
      }
    }

    /* Set the new LSE configuration -----------------------------------------*/
    if ((pRCC_OscInitStruct->LSEState & RCC_BDCR_LSEON) != 0U)
 8001612:	687b      	ldr	r3, [r7, #4]
 8001614:	689b      	ldr	r3, [r3, #8]
 8001616:	f003 0301 	and.w	r3, r3, #1
 800161a:	2b00      	cmp	r3, #0
 800161c:	d01f      	beq.n	800165e <HAL_RCC_OscConfig+0x772>
    {
      if ((pRCC_OscInitStruct->LSEState & RCC_BDCR_LSEBYP) != 0U)
 800161e:	687b      	ldr	r3, [r7, #4]
 8001620:	689b      	ldr	r3, [r3, #8]
 8001622:	f003 0304 	and.w	r3, r3, #4
 8001626:	2b00      	cmp	r3, #0
 8001628:	d010      	beq.n	800164c <HAL_RCC_OscConfig+0x760>
      {
        /* LSE oscillator bypass enable */
        SET_BIT(RCC->BDCR, RCC_BDCR_LSEBYP);
 800162a:	4b1e      	ldr	r3, [pc, #120]	@ (80016a4 <HAL_RCC_OscConfig+0x7b8>)
 800162c:	f8d3 30f0 	ldr.w	r3, [r3, #240]	@ 0xf0
 8001630:	4a1c      	ldr	r2, [pc, #112]	@ (80016a4 <HAL_RCC_OscConfig+0x7b8>)
 8001632:	f043 0304 	orr.w	r3, r3, #4
 8001636:	f8c2 30f0 	str.w	r3, [r2, #240]	@ 0xf0
        SET_BIT(RCC->BDCR, RCC_BDCR_LSEON);
 800163a:	4b1a      	ldr	r3, [pc, #104]	@ (80016a4 <HAL_RCC_OscConfig+0x7b8>)
 800163c:	f8d3 30f0 	ldr.w	r3, [r3, #240]	@ 0xf0
 8001640:	4a18      	ldr	r2, [pc, #96]	@ (80016a4 <HAL_RCC_OscConfig+0x7b8>)
 8001642:	f043 0301 	orr.w	r3, r3, #1
 8001646:	f8c2 30f0 	str.w	r3, [r2, #240]	@ 0xf0
 800164a:	e018      	b.n	800167e <HAL_RCC_OscConfig+0x792>
      }
      else
      {
        /* LSE oscillator enable */
        SET_BIT(RCC->BDCR, RCC_BDCR_LSEON);
 800164c:	4b15      	ldr	r3, [pc, #84]	@ (80016a4 <HAL_RCC_OscConfig+0x7b8>)
 800164e:	f8d3 30f0 	ldr.w	r3, [r3, #240]	@ 0xf0
 8001652:	4a14      	ldr	r2, [pc, #80]	@ (80016a4 <HAL_RCC_OscConfig+0x7b8>)
 8001654:	f043 0301 	orr.w	r3, r3, #1
 8001658:	f8c2 30f0 	str.w	r3, [r2, #240]	@ 0xf0
 800165c:	e00f      	b.n	800167e <HAL_RCC_OscConfig+0x792>
      }
    }
    else
    {
      CLEAR_BIT(RCC->BDCR, RCC_BDCR_LSEON);
 800165e:	4b11      	ldr	r3, [pc, #68]	@ (80016a4 <HAL_RCC_OscConfig+0x7b8>)
 8001660:	f8d3 30f0 	ldr.w	r3, [r3, #240]	@ 0xf0
 8001664:	4a0f      	ldr	r2, [pc, #60]	@ (80016a4 <HAL_RCC_OscConfig+0x7b8>)
 8001666:	f023 0301 	bic.w	r3, r3, #1
 800166a:	f8c2 30f0 	str.w	r3, [r2, #240]	@ 0xf0
      CLEAR_BIT(RCC->BDCR, RCC_BDCR_LSEBYP);
 800166e:	4b0d      	ldr	r3, [pc, #52]	@ (80016a4 <HAL_RCC_OscConfig+0x7b8>)
 8001670:	f8d3 30f0 	ldr.w	r3, [r3, #240]	@ 0xf0
 8001674:	4a0b      	ldr	r2, [pc, #44]	@ (80016a4 <HAL_RCC_OscConfig+0x7b8>)
 8001676:	f023 0304 	bic.w	r3, r3, #4
 800167a:	f8c2 30f0 	str.w	r3, [r2, #240]	@ 0xf0
    }

    /* Check the LSE State */
    if (pRCC_OscInitStruct->LSEState != RCC_LSE_OFF)
 800167e:	687b      	ldr	r3, [r7, #4]
 8001680:	689b      	ldr	r3, [r3, #8]
 8001682:	2b00      	cmp	r3, #0
 8001684:	d055      	beq.n	8001732 <HAL_RCC_OscConfig+0x846>
    {
      tickstart = HAL_GetTick();
 8001686:	f7fe ffcf 	bl	8000628 <HAL_GetTick>
 800168a:	62b8      	str	r0, [r7, #40]	@ 0x28

      /* Wait till LSE is ready */
      while (READ_BIT(RCC->BDCR, RCC_BDCR_LSERDY) == 0U)
 800168c:	e00e      	b.n	80016ac <HAL_RCC_OscConfig+0x7c0>
      {
        if ((HAL_GetTick() - tickstart) > RCC_LSE_TIMEOUT_VALUE)
 800168e:	f7fe ffcb 	bl	8000628 <HAL_GetTick>
 8001692:	4602      	mov	r2, r0
 8001694:	6abb      	ldr	r3, [r7, #40]	@ 0x28
 8001696:	1ad3      	subs	r3, r2, r3
 8001698:	f5b3 7ffa 	cmp.w	r3, #500	@ 0x1f4
 800169c:	d906      	bls.n	80016ac <HAL_RCC_OscConfig+0x7c0>
        {
          return HAL_TIMEOUT;
 800169e:	2303      	movs	r3, #3
 80016a0:	e2f5      	b.n	8001c8e <HAL_RCC_OscConfig+0xda2>
 80016a2:	bf00      	nop
 80016a4:	46020c00 	.word	0x46020c00
 80016a8:	46020800 	.word	0x46020800
      while (READ_BIT(RCC->BDCR, RCC_BDCR_LSERDY) == 0U)
 80016ac:	4ba2      	ldr	r3, [pc, #648]	@ (8001938 <HAL_RCC_OscConfig+0xa4c>)
 80016ae:	f8d3 30f0 	ldr.w	r3, [r3, #240]	@ 0xf0
 80016b2:	f003 0302 	and.w	r3, r3, #2
 80016b6:	2b00      	cmp	r3, #0
 80016b8:	d0e9      	beq.n	800168e <HAL_RCC_OscConfig+0x7a2>
        }
      }

      /* Enable LSESYS additionally if requested */
      if ((pRCC_OscInitStruct->LSEState & RCC_BDCR_LSESYSEN) != 0U)
 80016ba:	687b      	ldr	r3, [r7, #4]
 80016bc:	689b      	ldr	r3, [r3, #8]
 80016be:	f003 0380 	and.w	r3, r3, #128	@ 0x80
 80016c2:	2b00      	cmp	r3, #0
 80016c4:	d01a      	beq.n	80016fc <HAL_RCC_OscConfig+0x810>
      {
        SET_BIT(RCC->BDCR, RCC_BDCR_LSESYSEN);
 80016c6:	4b9c      	ldr	r3, [pc, #624]	@ (8001938 <HAL_RCC_OscConfig+0xa4c>)
 80016c8:	f8d3 30f0 	ldr.w	r3, [r3, #240]	@ 0xf0
 80016cc:	4a9a      	ldr	r2, [pc, #616]	@ (8001938 <HAL_RCC_OscConfig+0xa4c>)
 80016ce:	f043 0380 	orr.w	r3, r3, #128	@ 0x80
 80016d2:	f8c2 30f0 	str.w	r3, [r2, #240]	@ 0xf0

        /* Wait till LSESYS is ready */
        while (READ_BIT(RCC->BDCR, RCC_BDCR_LSESYSRDY) == 0U)
 80016d6:	e009      	b.n	80016ec <HAL_RCC_OscConfig+0x800>
        {
          if ((HAL_GetTick() - tickstart) > RCC_LSE_TIMEOUT_VALUE)
 80016d8:	f7fe ffa6 	bl	8000628 <HAL_GetTick>
 80016dc:	4602      	mov	r2, r0
 80016de:	6abb      	ldr	r3, [r7, #40]	@ 0x28
 80016e0:	1ad3      	subs	r3, r2, r3
 80016e2:	f5b3 7ffa 	cmp.w	r3, #500	@ 0x1f4
 80016e6:	d901      	bls.n	80016ec <HAL_RCC_OscConfig+0x800>
          {
            return HAL_TIMEOUT;
 80016e8:	2303      	movs	r3, #3
 80016ea:	e2d0      	b.n	8001c8e <HAL_RCC_OscConfig+0xda2>
        while (READ_BIT(RCC->BDCR, RCC_BDCR_LSESYSRDY) == 0U)
 80016ec:	4b92      	ldr	r3, [pc, #584]	@ (8001938 <HAL_RCC_OscConfig+0xa4c>)
 80016ee:	f8d3 30f0 	ldr.w	r3, [r3, #240]	@ 0xf0
 80016f2:	f403 6300 	and.w	r3, r3, #2048	@ 0x800
 80016f6:	2b00      	cmp	r3, #0
 80016f8:	d0ee      	beq.n	80016d8 <HAL_RCC_OscConfig+0x7ec>
 80016fa:	e050      	b.n	800179e <HAL_RCC_OscConfig+0x8b2>
        }
      }
      else
      {
        /* Make sure LSESYSEN/LSESYSRDY are reset */
        CLEAR_BIT(RCC->BDCR, RCC_BDCR_LSESYSEN);
 80016fc:	4b8e      	ldr	r3, [pc, #568]	@ (8001938 <HAL_RCC_OscConfig+0xa4c>)
 80016fe:	f8d3 30f0 	ldr.w	r3, [r3, #240]	@ 0xf0
 8001702:	4a8d      	ldr	r2, [pc, #564]	@ (8001938 <HAL_RCC_OscConfig+0xa4c>)
 8001704:	f023 0380 	bic.w	r3, r3, #128	@ 0x80
 8001708:	f8c2 30f0 	str.w	r3, [r2, #240]	@ 0xf0

        /* Wait till LSESYSRDY is cleared */
        while (READ_BIT(RCC->BDCR, RCC_BDCR_LSESYSRDY) != 0U)
 800170c:	e009      	b.n	8001722 <HAL_RCC_OscConfig+0x836>
        {
          if ((HAL_GetTick() - tickstart) > RCC_LSE_TIMEOUT_VALUE)
 800170e:	f7fe ff8b 	bl	8000628 <HAL_GetTick>
 8001712:	4602      	mov	r2, r0
 8001714:	6abb      	ldr	r3, [r7, #40]	@ 0x28
 8001716:	1ad3      	subs	r3, r2, r3
 8001718:	f5b3 7ffa 	cmp.w	r3, #500	@ 0x1f4
 800171c:	d901      	bls.n	8001722 <HAL_RCC_OscConfig+0x836>
          {
            return HAL_TIMEOUT;
 800171e:	2303      	movs	r3, #3
 8001720:	e2b5      	b.n	8001c8e <HAL_RCC_OscConfig+0xda2>
        while (READ_BIT(RCC->BDCR, RCC_BDCR_LSESYSRDY) != 0U)
 8001722:	4b85      	ldr	r3, [pc, #532]	@ (8001938 <HAL_RCC_OscConfig+0xa4c>)
 8001724:	f8d3 30f0 	ldr.w	r3, [r3, #240]	@ 0xf0
 8001728:	f403 6300 	and.w	r3, r3, #2048	@ 0x800
 800172c:	2b00      	cmp	r3, #0
 800172e:	d1ee      	bne.n	800170e <HAL_RCC_OscConfig+0x822>
 8001730:	e035      	b.n	800179e <HAL_RCC_OscConfig+0x8b2>
        }
      }
    }
    else
    {
      tickstart = HAL_GetTick();
 8001732:	f7fe ff79 	bl	8000628 <HAL_GetTick>
 8001736:	62b8      	str	r0, [r7, #40]	@ 0x28

      /* Wait till LSE is disabled */
      while (READ_BIT(RCC->BDCR, RCC_BDCR_LSERDY) != 0U)
 8001738:	e009      	b.n	800174e <HAL_RCC_OscConfig+0x862>
      {
        if ((HAL_GetTick() - tickstart) > RCC_LSE_TIMEOUT_VALUE)
 800173a:	f7fe ff75 	bl	8000628 <HAL_GetTick>
 800173e:	4602      	mov	r2, r0
 8001740:	6abb      	ldr	r3, [r7, #40]	@ 0x28
 8001742:	1ad3      	subs	r3, r2, r3
 8001744:	f5b3 7ffa 	cmp.w	r3, #500	@ 0x1f4
 8001748:	d901      	bls.n	800174e <HAL_RCC_OscConfig+0x862>
        {
          return HAL_TIMEOUT;
 800174a:	2303      	movs	r3, #3
 800174c:	e29f      	b.n	8001c8e <HAL_RCC_OscConfig+0xda2>
      while (READ_BIT(RCC->BDCR, RCC_BDCR_LSERDY) != 0U)
 800174e:	4b7a      	ldr	r3, [pc, #488]	@ (8001938 <HAL_RCC_OscConfig+0xa4c>)
 8001750:	f8d3 30f0 	ldr.w	r3, [r3, #240]	@ 0xf0
 8001754:	f003 0302 	and.w	r3, r3, #2
 8001758:	2b00      	cmp	r3, #0
 800175a:	d1ee      	bne.n	800173a <HAL_RCC_OscConfig+0x84e>
        }
      }

      if (READ_BIT(RCC->BDCR, RCC_BDCR_LSESYSEN) != 0U)
 800175c:	4b76      	ldr	r3, [pc, #472]	@ (8001938 <HAL_RCC_OscConfig+0xa4c>)
 800175e:	f8d3 30f0 	ldr.w	r3, [r3, #240]	@ 0xf0
 8001762:	f003 0380 	and.w	r3, r3, #128	@ 0x80
 8001766:	2b00      	cmp	r3, #0
 8001768:	d019      	beq.n	800179e <HAL_RCC_OscConfig+0x8b2>
      {
        /* Reset LSESYSEN once LSE is disabled */
        CLEAR_BIT(RCC->BDCR, RCC_BDCR_LSESYSEN);
 800176a:	4b73      	ldr	r3, [pc, #460]	@ (8001938 <HAL_RCC_OscConfig+0xa4c>)
 800176c:	f8d3 30f0 	ldr.w	r3, [r3, #240]	@ 0xf0
 8001770:	4a71      	ldr	r2, [pc, #452]	@ (8001938 <HAL_RCC_OscConfig+0xa4c>)
 8001772:	f023 0380 	bic.w	r3, r3, #128	@ 0x80
 8001776:	f8c2 30f0 	str.w	r3, [r2, #240]	@ 0xf0

        /* Wait till LSESYSRDY is cleared */
        while (READ_BIT(RCC->BDCR, RCC_BDCR_LSESYSRDY) != 0U)
 800177a:	e009      	b.n	8001790 <HAL_RCC_OscConfig+0x8a4>
        {
          if ((HAL_GetTick() - tickstart) > RCC_LSE_TIMEOUT_VALUE)
 800177c:	f7fe ff54 	bl	8000628 <HAL_GetTick>
 8001780:	4602      	mov	r2, r0
 8001782:	6abb      	ldr	r3, [r7, #40]	@ 0x28
 8001784:	1ad3      	subs	r3, r2, r3
 8001786:	f5b3 7ffa 	cmp.w	r3, #500	@ 0x1f4
 800178a:	d901      	bls.n	8001790 <HAL_RCC_OscConfig+0x8a4>
          {
            return HAL_TIMEOUT;
 800178c:	2303      	movs	r3, #3
 800178e:	e27e      	b.n	8001c8e <HAL_RCC_OscConfig+0xda2>
        while (READ_BIT(RCC->BDCR, RCC_BDCR_LSESYSRDY) != 0U)
 8001790:	4b69      	ldr	r3, [pc, #420]	@ (8001938 <HAL_RCC_OscConfig+0xa4c>)
 8001792:	f8d3 30f0 	ldr.w	r3, [r3, #240]	@ 0xf0
 8001796:	f403 6300 	and.w	r3, r3, #2048	@ 0x800
 800179a:	2b00      	cmp	r3, #0
 800179c:	d1ee      	bne.n	800177c <HAL_RCC_OscConfig+0x890>
        }
      }
    }

    /* Restore clock configuration if changed */
    if (pwrclkchanged == SET)
 800179e:	f897 3035 	ldrb.w	r3, [r7, #53]	@ 0x35
 80017a2:	2b01      	cmp	r3, #1
 80017a4:	d107      	bne.n	80017b6 <HAL_RCC_OscConfig+0x8ca>
    {
      __HAL_RCC_PWR_CLK_DISABLE();
 80017a6:	4b64      	ldr	r3, [pc, #400]	@ (8001938 <HAL_RCC_OscConfig+0xa4c>)
 80017a8:	f8d3 3094 	ldr.w	r3, [r3, #148]	@ 0x94
 80017ac:	4a62      	ldr	r2, [pc, #392]	@ (8001938 <HAL_RCC_OscConfig+0xa4c>)
 80017ae:	f023 0304 	bic.w	r3, r3, #4
 80017b2:	f8c2 3094 	str.w	r3, [r2, #148]	@ 0x94
    }
  }
  /*------------------------------ HSI48 Configuration -----------------------*/
  if (((pRCC_OscInitStruct->OscillatorType) & RCC_OSCILLATORTYPE_HSI48) == RCC_OSCILLATORTYPE_HSI48)
 80017b6:	687b      	ldr	r3, [r7, #4]
 80017b8:	681b      	ldr	r3, [r3, #0]
 80017ba:	f003 0320 	and.w	r3, r3, #32
 80017be:	2b00      	cmp	r3, #0
 80017c0:	d036      	beq.n	8001830 <HAL_RCC_OscConfig+0x944>
  {
    /* Check the parameters */
    assert_param(IS_RCC_HSI48(pRCC_OscInitStruct->HSI48State));

    /* Check the HSI48 State */
    if (pRCC_OscInitStruct->HSI48State != RCC_HSI48_OFF)
 80017c2:	687b      	ldr	r3, [r7, #4]
 80017c4:	6adb      	ldr	r3, [r3, #44]	@ 0x2c
 80017c6:	2b00      	cmp	r3, #0
 80017c8:	d019      	beq.n	80017fe <HAL_RCC_OscConfig+0x912>
    {
      /* Enable the Internal High Speed oscillator (HSI48) */
      __HAL_RCC_HSI48_ENABLE();
 80017ca:	4b5b      	ldr	r3, [pc, #364]	@ (8001938 <HAL_RCC_OscConfig+0xa4c>)
 80017cc:	681b      	ldr	r3, [r3, #0]
 80017ce:	4a5a      	ldr	r2, [pc, #360]	@ (8001938 <HAL_RCC_OscConfig+0xa4c>)
 80017d0:	f443 5380 	orr.w	r3, r3, #4096	@ 0x1000
 80017d4:	6013      	str	r3, [r2, #0]

      tickstart = HAL_GetTick();
 80017d6:	f7fe ff27 	bl	8000628 <HAL_GetTick>
 80017da:	62b8      	str	r0, [r7, #40]	@ 0x28

      /* Wait till HSI48 is ready */
      while (READ_BIT(RCC->CR, RCC_CR_HSI48RDY) == 0U)
 80017dc:	e008      	b.n	80017f0 <HAL_RCC_OscConfig+0x904>
      {
        if ((HAL_GetTick() - tickstart) > HSI48_TIMEOUT_VALUE)
 80017de:	f7fe ff23 	bl	8000628 <HAL_GetTick>
 80017e2:	4602      	mov	r2, r0
 80017e4:	6abb      	ldr	r3, [r7, #40]	@ 0x28
 80017e6:	1ad3      	subs	r3, r2, r3
 80017e8:	2b02      	cmp	r3, #2
 80017ea:	d901      	bls.n	80017f0 <HAL_RCC_OscConfig+0x904>
        {
          return HAL_TIMEOUT;
 80017ec:	2303      	movs	r3, #3
 80017ee:	e24e      	b.n	8001c8e <HAL_RCC_OscConfig+0xda2>
      while (READ_BIT(RCC->CR, RCC_CR_HSI48RDY) == 0U)
 80017f0:	4b51      	ldr	r3, [pc, #324]	@ (8001938 <HAL_RCC_OscConfig+0xa4c>)
 80017f2:	681b      	ldr	r3, [r3, #0]
 80017f4:	f403 5300 	and.w	r3, r3, #8192	@ 0x2000
 80017f8:	2b00      	cmp	r3, #0
 80017fa:	d0f0      	beq.n	80017de <HAL_RCC_OscConfig+0x8f2>
 80017fc:	e018      	b.n	8001830 <HAL_RCC_OscConfig+0x944>
      }
    }
    else
    {
      /* Disable the Internal High Speed oscillator (HSI48) */
      __HAL_RCC_HSI48_DISABLE();
 80017fe:	4b4e      	ldr	r3, [pc, #312]	@ (8001938 <HAL_RCC_OscConfig+0xa4c>)
 8001800:	681b      	ldr	r3, [r3, #0]
 8001802:	4a4d      	ldr	r2, [pc, #308]	@ (8001938 <HAL_RCC_OscConfig+0xa4c>)
 8001804:	f423 5380 	bic.w	r3, r3, #4096	@ 0x1000
 8001808:	6013      	str	r3, [r2, #0]

      tickstart = HAL_GetTick();
 800180a:	f7fe ff0d 	bl	8000628 <HAL_GetTick>
 800180e:	62b8      	str	r0, [r7, #40]	@ 0x28

      /* Wait till HSI48 is disabled */
      while (READ_BIT(RCC->CR, RCC_CR_HSI48RDY) != 0U)
 8001810:	e008      	b.n	8001824 <HAL_RCC_OscConfig+0x938>
      {
        if ((HAL_GetTick() - tickstart) > HSI48_TIMEOUT_VALUE)
 8001812:	f7fe ff09 	bl	8000628 <HAL_GetTick>
 8001816:	4602      	mov	r2, r0
 8001818:	6abb      	ldr	r3, [r7, #40]	@ 0x28
 800181a:	1ad3      	subs	r3, r2, r3
 800181c:	2b02      	cmp	r3, #2
 800181e:	d901      	bls.n	8001824 <HAL_RCC_OscConfig+0x938>
        {
          return HAL_TIMEOUT;
 8001820:	2303      	movs	r3, #3
 8001822:	e234      	b.n	8001c8e <HAL_RCC_OscConfig+0xda2>
      while (READ_BIT(RCC->CR, RCC_CR_HSI48RDY) != 0U)
 8001824:	4b44      	ldr	r3, [pc, #272]	@ (8001938 <HAL_RCC_OscConfig+0xa4c>)
 8001826:	681b      	ldr	r3, [r3, #0]
 8001828:	f403 5300 	and.w	r3, r3, #8192	@ 0x2000
 800182c:	2b00      	cmp	r3, #0
 800182e:	d1f0      	bne.n	8001812 <HAL_RCC_OscConfig+0x926>
      }
    }
  }

  /*------------------------------ SHSI Configuration -----------------------*/
  if (((pRCC_OscInitStruct->OscillatorType) & RCC_OSCILLATORTYPE_SHSI) == RCC_OSCILLATORTYPE_SHSI)
 8001830:	687b      	ldr	r3, [r7, #4]
 8001832:	681b      	ldr	r3, [r3, #0]
 8001834:	f003 0380 	and.w	r3, r3, #128	@ 0x80
 8001838:	2b00      	cmp	r3, #0
 800183a:	d036      	beq.n	80018aa <HAL_RCC_OscConfig+0x9be>
  {
    /* Check the parameters */
    assert_param(IS_RCC_SHSI(pRCC_OscInitStruct->SHSIState));

    /* Check the SHSI State */
    if (pRCC_OscInitStruct->SHSIState != RCC_SHSI_OFF)
 800183c:	687b      	ldr	r3, [r7, #4]
 800183e:	6b1b      	ldr	r3, [r3, #48]	@ 0x30
 8001840:	2b00      	cmp	r3, #0
 8001842:	d019      	beq.n	8001878 <HAL_RCC_OscConfig+0x98c>
    {
      /* Enable the Secure Internal High Speed oscillator (SHSI) */
      __HAL_RCC_SHSI_ENABLE();
 8001844:	4b3c      	ldr	r3, [pc, #240]	@ (8001938 <HAL_RCC_OscConfig+0xa4c>)
 8001846:	681b      	ldr	r3, [r3, #0]
 8001848:	4a3b      	ldr	r2, [pc, #236]	@ (8001938 <HAL_RCC_OscConfig+0xa4c>)
 800184a:	f443 4380 	orr.w	r3, r3, #16384	@ 0x4000
 800184e:	6013      	str	r3, [r2, #0]

      tickstart = HAL_GetTick();
 8001850:	f7fe feea 	bl	8000628 <HAL_GetTick>
 8001854:	62b8      	str	r0, [r7, #40]	@ 0x28

      /* Wait till SHSI is ready */
      while (READ_BIT(RCC->CR, RCC_CR_SHSIRDY) == 0U)
 8001856:	e008      	b.n	800186a <HAL_RCC_OscConfig+0x97e>
      {
        if ((HAL_GetTick() - tickstart) > SHSI_TIMEOUT_VALUE)
 8001858:	f7fe fee6 	bl	8000628 <HAL_GetTick>
 800185c:	4602      	mov	r2, r0
 800185e:	6abb      	ldr	r3, [r7, #40]	@ 0x28
 8001860:	1ad3      	subs	r3, r2, r3
 8001862:	2b02      	cmp	r3, #2
 8001864:	d901      	bls.n	800186a <HAL_RCC_OscConfig+0x97e>
        {
          return HAL_TIMEOUT;
 8001866:	2303      	movs	r3, #3
 8001868:	e211      	b.n	8001c8e <HAL_RCC_OscConfig+0xda2>
      while (READ_BIT(RCC->CR, RCC_CR_SHSIRDY) == 0U)
 800186a:	4b33      	ldr	r3, [pc, #204]	@ (8001938 <HAL_RCC_OscConfig+0xa4c>)
 800186c:	681b      	ldr	r3, [r3, #0]
 800186e:	f403 4300 	and.w	r3, r3, #32768	@ 0x8000
 8001872:	2b00      	cmp	r3, #0
 8001874:	d0f0      	beq.n	8001858 <HAL_RCC_OscConfig+0x96c>
 8001876:	e018      	b.n	80018aa <HAL_RCC_OscConfig+0x9be>
      }
    }
    else
    {
      /* Disable the Secure Internal High Speed oscillator (SHSI) */
      __HAL_RCC_SHSI_DISABLE();
 8001878:	4b2f      	ldr	r3, [pc, #188]	@ (8001938 <HAL_RCC_OscConfig+0xa4c>)
 800187a:	681b      	ldr	r3, [r3, #0]
 800187c:	4a2e      	ldr	r2, [pc, #184]	@ (8001938 <HAL_RCC_OscConfig+0xa4c>)
 800187e:	f423 4380 	bic.w	r3, r3, #16384	@ 0x4000
 8001882:	6013      	str	r3, [r2, #0]

      tickstart = HAL_GetTick();
 8001884:	f7fe fed0 	bl	8000628 <HAL_GetTick>
 8001888:	62b8      	str	r0, [r7, #40]	@ 0x28

      /* Wait till SHSI is disabled */
      while (READ_BIT(RCC->CR, RCC_CR_SHSIRDY) != 0U)
 800188a:	e008      	b.n	800189e <HAL_RCC_OscConfig+0x9b2>
      {
        if ((HAL_GetTick() - tickstart) > SHSI_TIMEOUT_VALUE)
 800188c:	f7fe fecc 	bl	8000628 <HAL_GetTick>
 8001890:	4602      	mov	r2, r0
 8001892:	6abb      	ldr	r3, [r7, #40]	@ 0x28
 8001894:	1ad3      	subs	r3, r2, r3
 8001896:	2b02      	cmp	r3, #2
 8001898:	d901      	bls.n	800189e <HAL_RCC_OscConfig+0x9b2>
        {
          return HAL_TIMEOUT;
 800189a:	2303      	movs	r3, #3
 800189c:	e1f7      	b.n	8001c8e <HAL_RCC_OscConfig+0xda2>
      while (READ_BIT(RCC->CR, RCC_CR_SHSIRDY) != 0U)
 800189e:	4b26      	ldr	r3, [pc, #152]	@ (8001938 <HAL_RCC_OscConfig+0xa4c>)
 80018a0:	681b      	ldr	r3, [r3, #0]
 80018a2:	f403 4300 	and.w	r3, r3, #32768	@ 0x8000
 80018a6:	2b00      	cmp	r3, #0
 80018a8:	d1f0      	bne.n	800188c <HAL_RCC_OscConfig+0x9a0>
        }
      }
    }
  }
  /*------------------------------ MSIK Configuration -----------------------*/
  if (((pRCC_OscInitStruct->OscillatorType) & RCC_OSCILLATORTYPE_MSIK) == RCC_OSCILLATORTYPE_MSIK)
 80018aa:	687b      	ldr	r3, [r7, #4]
 80018ac:	681b      	ldr	r3, [r3, #0]
 80018ae:	f003 0340 	and.w	r3, r3, #64	@ 0x40
 80018b2:	2b00      	cmp	r3, #0
 80018b4:	d07f      	beq.n	80019b6 <HAL_RCC_OscConfig+0xaca>
    assert_param(IS_RCC_MSIK(pRCC_OscInitStruct->MSIKState));
    assert_param(IS_RCC_MSIK_CLOCK_RANGE(pRCC_OscInitStruct->MSIKClockRange));
    assert_param(IS_RCC_MSICALIBRATION_VALUE(pRCC_OscInitStruct->MSICalibrationValue));

    /* Check the MSIK State */
    if (pRCC_OscInitStruct->MSIKState != RCC_MSIK_OFF)
 80018b6:	687b      	ldr	r3, [r7, #4]
 80018b8:	6b5b      	ldr	r3, [r3, #52]	@ 0x34
 80018ba:	2b00      	cmp	r3, #0
 80018bc:	d062      	beq.n	8001984 <HAL_RCC_OscConfig+0xa98>
    {

      /* Selects the Multiple Speed of kernel high speed oscillator (MSIK) clock range .*/
      __HAL_RCC_MSIK_RANGE_CONFIG(pRCC_OscInitStruct->MSIKClockRange);
 80018be:	4b1e      	ldr	r3, [pc, #120]	@ (8001938 <HAL_RCC_OscConfig+0xa4c>)
 80018c0:	689b      	ldr	r3, [r3, #8]
 80018c2:	4a1d      	ldr	r2, [pc, #116]	@ (8001938 <HAL_RCC_OscConfig+0xa4c>)
 80018c4:	f443 0300 	orr.w	r3, r3, #8388608	@ 0x800000
 80018c8:	6093      	str	r3, [r2, #8]
 80018ca:	4b1b      	ldr	r3, [pc, #108]	@ (8001938 <HAL_RCC_OscConfig+0xa4c>)
 80018cc:	689b      	ldr	r3, [r3, #8]
 80018ce:	f023 6270 	bic.w	r2, r3, #251658240	@ 0xf000000
 80018d2:	687b      	ldr	r3, [r7, #4]
 80018d4:	6a9b      	ldr	r3, [r3, #40]	@ 0x28
 80018d6:	4918      	ldr	r1, [pc, #96]	@ (8001938 <HAL_RCC_OscConfig+0xa4c>)
 80018d8:	4313      	orrs	r3, r2
 80018da:	608b      	str	r3, [r1, #8]
      /* Adjusts the Multiple Speed of kernel high speed oscillator (MSIK) calibration value.*/
      __HAL_RCC_MSI_CALIBRATIONVALUE_ADJUST((pRCC_OscInitStruct->MSICalibrationValue), \
 80018dc:	687b      	ldr	r3, [r7, #4]
 80018de:	6a5b      	ldr	r3, [r3, #36]	@ 0x24
 80018e0:	f1b3 4f40 	cmp.w	r3, #3221225472	@ 0xc0000000
 80018e4:	d309      	bcc.n	80018fa <HAL_RCC_OscConfig+0xa0e>
 80018e6:	4b14      	ldr	r3, [pc, #80]	@ (8001938 <HAL_RCC_OscConfig+0xa4c>)
 80018e8:	68db      	ldr	r3, [r3, #12]
 80018ea:	f023 021f 	bic.w	r2, r3, #31
 80018ee:	687b      	ldr	r3, [r7, #4]
 80018f0:	6a1b      	ldr	r3, [r3, #32]
 80018f2:	4911      	ldr	r1, [pc, #68]	@ (8001938 <HAL_RCC_OscConfig+0xa4c>)
 80018f4:	4313      	orrs	r3, r2
 80018f6:	60cb      	str	r3, [r1, #12]
 80018f8:	e02a      	b.n	8001950 <HAL_RCC_OscConfig+0xa64>
 80018fa:	687b      	ldr	r3, [r7, #4]
 80018fc:	6a5b      	ldr	r3, [r3, #36]	@ 0x24
 80018fe:	2b00      	cmp	r3, #0
 8001900:	da0a      	bge.n	8001918 <HAL_RCC_OscConfig+0xa2c>
 8001902:	4b0d      	ldr	r3, [pc, #52]	@ (8001938 <HAL_RCC_OscConfig+0xa4c>)
 8001904:	68db      	ldr	r3, [r3, #12]
 8001906:	f423 7278 	bic.w	r2, r3, #992	@ 0x3e0
 800190a:	687b      	ldr	r3, [r7, #4]
 800190c:	6a1b      	ldr	r3, [r3, #32]
 800190e:	015b      	lsls	r3, r3, #5
 8001910:	4909      	ldr	r1, [pc, #36]	@ (8001938 <HAL_RCC_OscConfig+0xa4c>)
 8001912:	4313      	orrs	r3, r2
 8001914:	60cb      	str	r3, [r1, #12]
 8001916:	e01b      	b.n	8001950 <HAL_RCC_OscConfig+0xa64>
 8001918:	687b      	ldr	r3, [r7, #4]
 800191a:	6a5b      	ldr	r3, [r3, #36]	@ 0x24
 800191c:	f1b3 4f80 	cmp.w	r3, #1073741824	@ 0x40000000
 8001920:	d30c      	bcc.n	800193c <HAL_RCC_OscConfig+0xa50>
 8001922:	4b05      	ldr	r3, [pc, #20]	@ (8001938 <HAL_RCC_OscConfig+0xa4c>)
 8001924:	68db      	ldr	r3, [r3, #12]
 8001926:	f423 42f8 	bic.w	r2, r3, #31744	@ 0x7c00
 800192a:	687b      	ldr	r3, [r7, #4]
 800192c:	6a1b      	ldr	r3, [r3, #32]
 800192e:	029b      	lsls	r3, r3, #10
 8001930:	4901      	ldr	r1, [pc, #4]	@ (8001938 <HAL_RCC_OscConfig+0xa4c>)
 8001932:	4313      	orrs	r3, r2
 8001934:	60cb      	str	r3, [r1, #12]
 8001936:	e00b      	b.n	8001950 <HAL_RCC_OscConfig+0xa64>
 8001938:	46020c00 	.word	0x46020c00
 800193c:	4b9b      	ldr	r3, [pc, #620]	@ (8001bac <HAL_RCC_OscConfig+0xcc0>)
 800193e:	68db      	ldr	r3, [r3, #12]
 8001940:	f423 2278 	bic.w	r2, r3, #1015808	@ 0xf8000
 8001944:	687b      	ldr	r3, [r7, #4]
 8001946:	6a1b      	ldr	r3, [r3, #32]
 8001948:	03db      	lsls	r3, r3, #15
 800194a:	4998      	ldr	r1, [pc, #608]	@ (8001bac <HAL_RCC_OscConfig+0xcc0>)
 800194c:	4313      	orrs	r3, r2
 800194e:	60cb      	str	r3, [r1, #12]
                                            (pRCC_OscInitStruct->MSIClockRange));

      /* Enable the Internal kernel High Speed oscillator (MSIK) */
      __HAL_RCC_MSIK_ENABLE();
 8001950:	4b96      	ldr	r3, [pc, #600]	@ (8001bac <HAL_RCC_OscConfig+0xcc0>)
 8001952:	681b      	ldr	r3, [r3, #0]
 8001954:	4a95      	ldr	r2, [pc, #596]	@ (8001bac <HAL_RCC_OscConfig+0xcc0>)
 8001956:	f043 0310 	orr.w	r3, r3, #16
 800195a:	6013      	str	r3, [r2, #0]

      tickstart = HAL_GetTick();
 800195c:	f7fe fe64 	bl	8000628 <HAL_GetTick>
 8001960:	62b8      	str	r0, [r7, #40]	@ 0x28

      /* Wait till MSIK is ready */
      while (READ_BIT(RCC->CR, RCC_CR_MSIKRDY) == 0U)
 8001962:	e008      	b.n	8001976 <HAL_RCC_OscConfig+0xa8a>
      {
        if ((HAL_GetTick() - tickstart) > MSIK_TIMEOUT_VALUE)
 8001964:	f7fe fe60 	bl	8000628 <HAL_GetTick>
 8001968:	4602      	mov	r2, r0
 800196a:	6abb      	ldr	r3, [r7, #40]	@ 0x28
 800196c:	1ad3      	subs	r3, r2, r3
 800196e:	2b02      	cmp	r3, #2
 8001970:	d901      	bls.n	8001976 <HAL_RCC_OscConfig+0xa8a>
        {
          return HAL_TIMEOUT;
 8001972:	2303      	movs	r3, #3
 8001974:	e18b      	b.n	8001c8e <HAL_RCC_OscConfig+0xda2>
      while (READ_BIT(RCC->CR, RCC_CR_MSIKRDY) == 0U)
 8001976:	4b8d      	ldr	r3, [pc, #564]	@ (8001bac <HAL_RCC_OscConfig+0xcc0>)
 8001978:	681b      	ldr	r3, [r3, #0]
 800197a:	f003 0320 	and.w	r3, r3, #32
 800197e:	2b00      	cmp	r3, #0
 8001980:	d0f0      	beq.n	8001964 <HAL_RCC_OscConfig+0xa78>
 8001982:	e018      	b.n	80019b6 <HAL_RCC_OscConfig+0xaca>
      }
    }
    else
    {
      /* Disable the Internal High Speed Kernel oscillator (MSIK) */
      __HAL_RCC_MSIK_DISABLE();
 8001984:	4b89      	ldr	r3, [pc, #548]	@ (8001bac <HAL_RCC_OscConfig+0xcc0>)
 8001986:	681b      	ldr	r3, [r3, #0]
 8001988:	4a88      	ldr	r2, [pc, #544]	@ (8001bac <HAL_RCC_OscConfig+0xcc0>)
 800198a:	f023 0310 	bic.w	r3, r3, #16
 800198e:	6013      	str	r3, [r2, #0]

      tickstart = HAL_GetTick();
 8001990:	f7fe fe4a 	bl	8000628 <HAL_GetTick>
 8001994:	62b8      	str	r0, [r7, #40]	@ 0x28

      /* Wait till MSIK is disabled */
      while (READ_BIT(RCC->CR, RCC_CR_MSIKRDY) != 0U)
 8001996:	e008      	b.n	80019aa <HAL_RCC_OscConfig+0xabe>
      {
        if ((HAL_GetTick() - tickstart) > MSIK_TIMEOUT_VALUE)
 8001998:	f7fe fe46 	bl	8000628 <HAL_GetTick>
 800199c:	4602      	mov	r2, r0
 800199e:	6abb      	ldr	r3, [r7, #40]	@ 0x28
 80019a0:	1ad3      	subs	r3, r2, r3
 80019a2:	2b02      	cmp	r3, #2
 80019a4:	d901      	bls.n	80019aa <HAL_RCC_OscConfig+0xabe>
        {
          return HAL_TIMEOUT;
 80019a6:	2303      	movs	r3, #3
 80019a8:	e171      	b.n	8001c8e <HAL_RCC_OscConfig+0xda2>
      while (READ_BIT(RCC->CR, RCC_CR_MSIKRDY) != 0U)
 80019aa:	4b80      	ldr	r3, [pc, #512]	@ (8001bac <HAL_RCC_OscConfig+0xcc0>)
 80019ac:	681b      	ldr	r3, [r3, #0]
 80019ae:	f003 0320 	and.w	r3, r3, #32
 80019b2:	2b00      	cmp	r3, #0
 80019b4:	d1f0      	bne.n	8001998 <HAL_RCC_OscConfig+0xaac>
  }
  /*-------------------------------- PLL Configuration -----------------------*/
  /* Check the parameters */
  assert_param(IS_RCC_PLL(pRCC_OscInitStruct->PLL.PLLState));

  if ((pRCC_OscInitStruct->PLL.PLLState) != RCC_PLL_NONE)
 80019b6:	687b      	ldr	r3, [r7, #4]
 80019b8:	6b9b      	ldr	r3, [r3, #56]	@ 0x38
 80019ba:	2b00      	cmp	r3, #0
 80019bc:	f000 8166 	beq.w	8001c8c <HAL_RCC_OscConfig+0xda0>
  {
    FlagStatus  pwrclkchanged = RESET;
 80019c0:	2300      	movs	r3, #0
 80019c2:	f887 3034 	strb.w	r3, [r7, #52]	@ 0x34

    /* Check if the PLL is used as system clock or not */
    if (__HAL_RCC_GET_SYSCLK_SOURCE() != RCC_SYSCLKSOURCE_STATUS_PLLCLK)
 80019c6:	4b79      	ldr	r3, [pc, #484]	@ (8001bac <HAL_RCC_OscConfig+0xcc0>)
 80019c8:	69db      	ldr	r3, [r3, #28]
 80019ca:	f003 030c 	and.w	r3, r3, #12
 80019ce:	2b0c      	cmp	r3, #12
 80019d0:	f000 80f2 	beq.w	8001bb8 <HAL_RCC_OscConfig+0xccc>
    {
      if ((pRCC_OscInitStruct->PLL.PLLState) == RCC_PLL_ON)
 80019d4:	687b      	ldr	r3, [r7, #4]
 80019d6:	6b9b      	ldr	r3, [r3, #56]	@ 0x38
 80019d8:	2b02      	cmp	r3, #2
 80019da:	f040 80c5 	bne.w	8001b68 <HAL_RCC_OscConfig+0xc7c>
        assert_param(IS_RCC_PLLP_VALUE(pRCC_OscInitStruct->PLL.PLLP));
        assert_param(IS_RCC_PLLQ_VALUE(pRCC_OscInitStruct->PLL.PLLQ));
        assert_param(IS_RCC_PLLR_VALUE(pRCC_OscInitStruct->PLL.PLLR));

        /* Disable the main PLL */
        __HAL_RCC_PLL_DISABLE();
 80019de:	4b73      	ldr	r3, [pc, #460]	@ (8001bac <HAL_RCC_OscConfig+0xcc0>)
 80019e0:	681b      	ldr	r3, [r3, #0]
 80019e2:	4a72      	ldr	r2, [pc, #456]	@ (8001bac <HAL_RCC_OscConfig+0xcc0>)
 80019e4:	f023 7380 	bic.w	r3, r3, #16777216	@ 0x1000000
 80019e8:	6013      	str	r3, [r2, #0]

        tickstart = HAL_GetTick();
 80019ea:	f7fe fe1d 	bl	8000628 <HAL_GetTick>
 80019ee:	62b8      	str	r0, [r7, #40]	@ 0x28

        /* Wait till PLL is disabled */
        while (READ_BIT(RCC->CR, RCC_CR_PLL1RDY) != 0U)
 80019f0:	e008      	b.n	8001a04 <HAL_RCC_OscConfig+0xb18>
        {
          if ((HAL_GetTick() - tickstart) > PLL_TIMEOUT_VALUE)
 80019f2:	f7fe fe19 	bl	8000628 <HAL_GetTick>
 80019f6:	4602      	mov	r2, r0
 80019f8:	6abb      	ldr	r3, [r7, #40]	@ 0x28
 80019fa:	1ad3      	subs	r3, r2, r3
 80019fc:	2b02      	cmp	r3, #2
 80019fe:	d901      	bls.n	8001a04 <HAL_RCC_OscConfig+0xb18>
          {
            return HAL_TIMEOUT;
 8001a00:	2303      	movs	r3, #3
 8001a02:	e144      	b.n	8001c8e <HAL_RCC_OscConfig+0xda2>
        while (READ_BIT(RCC->CR, RCC_CR_PLL1RDY) != 0U)
 8001a04:	4b69      	ldr	r3, [pc, #420]	@ (8001bac <HAL_RCC_OscConfig+0xcc0>)
 8001a06:	681b      	ldr	r3, [r3, #0]
 8001a08:	f003 7300 	and.w	r3, r3, #33554432	@ 0x2000000
 8001a0c:	2b00      	cmp	r3, #0
 8001a0e:	d1f0      	bne.n	80019f2 <HAL_RCC_OscConfig+0xb06>
          }
        }

        /* Requires to enable write access to Backup Domain of necessary */
        if (__HAL_RCC_PWR_IS_CLK_DISABLED())
 8001a10:	4b66      	ldr	r3, [pc, #408]	@ (8001bac <HAL_RCC_OscConfig+0xcc0>)
 8001a12:	f8d3 3094 	ldr.w	r3, [r3, #148]	@ 0x94
 8001a16:	f003 0304 	and.w	r3, r3, #4
 8001a1a:	2b00      	cmp	r3, #0
 8001a1c:	d111      	bne.n	8001a42 <HAL_RCC_OscConfig+0xb56>
        {
          __HAL_RCC_PWR_CLK_ENABLE();
 8001a1e:	4b63      	ldr	r3, [pc, #396]	@ (8001bac <HAL_RCC_OscConfig+0xcc0>)
 8001a20:	f8d3 3094 	ldr.w	r3, [r3, #148]	@ 0x94
 8001a24:	4a61      	ldr	r2, [pc, #388]	@ (8001bac <HAL_RCC_OscConfig+0xcc0>)
 8001a26:	f043 0304 	orr.w	r3, r3, #4
 8001a2a:	f8c2 3094 	str.w	r3, [r2, #148]	@ 0x94
 8001a2e:	4b5f      	ldr	r3, [pc, #380]	@ (8001bac <HAL_RCC_OscConfig+0xcc0>)
 8001a30:	f8d3 3094 	ldr.w	r3, [r3, #148]	@ 0x94
 8001a34:	f003 0304 	and.w	r3, r3, #4
 8001a38:	60fb      	str	r3, [r7, #12]
 8001a3a:	68fb      	ldr	r3, [r7, #12]
          pwrclkchanged = SET;
 8001a3c:	2301      	movs	r3, #1
 8001a3e:	f887 3034 	strb.w	r3, [r7, #52]	@ 0x34
        }

        /*Disable EPOD to configure PLL1MBOOST*/
        if (READ_BIT(PWR->VOSR, PWR_VOSR_BOOSTEN) == PWR_VOSR_BOOSTEN)
 8001a42:	4b5b      	ldr	r3, [pc, #364]	@ (8001bb0 <HAL_RCC_OscConfig+0xcc4>)
 8001a44:	68db      	ldr	r3, [r3, #12]
 8001a46:	f403 2380 	and.w	r3, r3, #262144	@ 0x40000
 8001a4a:	f5b3 2f80 	cmp.w	r3, #262144	@ 0x40000
 8001a4e:	d102      	bne.n	8001a56 <HAL_RCC_OscConfig+0xb6a>
        {
          pwrboosten = SET;
 8001a50:	2301      	movs	r3, #1
 8001a52:	f887 3037 	strb.w	r3, [r7, #55]	@ 0x37
        }
        CLEAR_BIT(PWR->VOSR, PWR_VOSR_BOOSTEN);
 8001a56:	4b56      	ldr	r3, [pc, #344]	@ (8001bb0 <HAL_RCC_OscConfig+0xcc4>)
 8001a58:	68db      	ldr	r3, [r3, #12]
 8001a5a:	4a55      	ldr	r2, [pc, #340]	@ (8001bb0 <HAL_RCC_OscConfig+0xcc4>)
 8001a5c:	f423 2380 	bic.w	r3, r3, #262144	@ 0x40000
 8001a60:	60d3      	str	r3, [r2, #12]

        /* Configure the main PLL clock source, multiplication and division factors */
        __HAL_RCC_PLL_CONFIG(pRCC_OscInitStruct->PLL.PLLSource,
 8001a62:	4b52      	ldr	r3, [pc, #328]	@ (8001bac <HAL_RCC_OscConfig+0xcc0>)
 8001a64:	6a9b      	ldr	r3, [r3, #40]	@ 0x28
 8001a66:	f423 437f 	bic.w	r3, r3, #65280	@ 0xff00
 8001a6a:	f023 0303 	bic.w	r3, r3, #3
 8001a6e:	687a      	ldr	r2, [r7, #4]
 8001a70:	6bd1      	ldr	r1, [r2, #60]	@ 0x3c
 8001a72:	687a      	ldr	r2, [r7, #4]
 8001a74:	6c12      	ldr	r2, [r2, #64]	@ 0x40
 8001a76:	3a01      	subs	r2, #1
 8001a78:	0212      	lsls	r2, r2, #8
 8001a7a:	4311      	orrs	r1, r2
 8001a7c:	687a      	ldr	r2, [r7, #4]
 8001a7e:	6c52      	ldr	r2, [r2, #68]	@ 0x44
 8001a80:	430a      	orrs	r2, r1
 8001a82:	494a      	ldr	r1, [pc, #296]	@ (8001bac <HAL_RCC_OscConfig+0xcc0>)
 8001a84:	4313      	orrs	r3, r2
 8001a86:	628b      	str	r3, [r1, #40]	@ 0x28
 8001a88:	4b48      	ldr	r3, [pc, #288]	@ (8001bac <HAL_RCC_OscConfig+0xcc0>)
 8001a8a:	6b5a      	ldr	r2, [r3, #52]	@ 0x34
 8001a8c:	4b49      	ldr	r3, [pc, #292]	@ (8001bb4 <HAL_RCC_OscConfig+0xcc8>)
 8001a8e:	4013      	ands	r3, r2
 8001a90:	687a      	ldr	r2, [r7, #4]
 8001a92:	6c92      	ldr	r2, [r2, #72]	@ 0x48
 8001a94:	3a01      	subs	r2, #1
 8001a96:	f3c2 0108 	ubfx	r1, r2, #0, #9
 8001a9a:	687a      	ldr	r2, [r7, #4]
 8001a9c:	6cd2      	ldr	r2, [r2, #76]	@ 0x4c
 8001a9e:	3a01      	subs	r2, #1
 8001aa0:	0252      	lsls	r2, r2, #9
 8001aa2:	b292      	uxth	r2, r2
 8001aa4:	4311      	orrs	r1, r2
 8001aa6:	687a      	ldr	r2, [r7, #4]
 8001aa8:	6d12      	ldr	r2, [r2, #80]	@ 0x50
 8001aaa:	3a01      	subs	r2, #1
 8001aac:	0412      	lsls	r2, r2, #16
 8001aae:	f402 02fe 	and.w	r2, r2, #8323072	@ 0x7f0000
 8001ab2:	4311      	orrs	r1, r2
 8001ab4:	687a      	ldr	r2, [r7, #4]
 8001ab6:	6d52      	ldr	r2, [r2, #84]	@ 0x54
 8001ab8:	3a01      	subs	r2, #1
 8001aba:	0612      	lsls	r2, r2, #24
 8001abc:	f002 42fe 	and.w	r2, r2, #2130706432	@ 0x7f000000
 8001ac0:	430a      	orrs	r2, r1
 8001ac2:	493a      	ldr	r1, [pc, #232]	@ (8001bac <HAL_RCC_OscConfig+0xcc0>)
 8001ac4:	4313      	orrs	r3, r2
 8001ac6:	634b      	str	r3, [r1, #52]	@ 0x34
                             pRCC_OscInitStruct->PLL.PLLR);

        assert_param(IS_RCC_PLL_FRACN_VALUE(pRCC_OscInitStruct->PLL.PLLFRACN));

        /* Disable PLL1FRACN  */
        __HAL_RCC_PLL_FRACN_DISABLE();
 8001ac8:	4b38      	ldr	r3, [pc, #224]	@ (8001bac <HAL_RCC_OscConfig+0xcc0>)
 8001aca:	6a9b      	ldr	r3, [r3, #40]	@ 0x28
 8001acc:	4a37      	ldr	r2, [pc, #220]	@ (8001bac <HAL_RCC_OscConfig+0xcc0>)
 8001ace:	f023 0310 	bic.w	r3, r3, #16
 8001ad2:	6293      	str	r3, [r2, #40]	@ 0x28

        /* Configure PLL  PLL1FRACN */
        __HAL_RCC_PLL_FRACN_CONFIG(pRCC_OscInitStruct->PLL.PLLFRACN);
 8001ad4:	687b      	ldr	r3, [r7, #4]
 8001ad6:	6ddb      	ldr	r3, [r3, #92]	@ 0x5c
 8001ad8:	4a34      	ldr	r2, [pc, #208]	@ (8001bac <HAL_RCC_OscConfig+0xcc0>)
 8001ada:	00db      	lsls	r3, r3, #3
 8001adc:	6393      	str	r3, [r2, #56]	@ 0x38

        /* Enable PLL1FRACN  */
        __HAL_RCC_PLL_FRACN_ENABLE();
 8001ade:	4b33      	ldr	r3, [pc, #204]	@ (8001bac <HAL_RCC_OscConfig+0xcc0>)
 8001ae0:	6a9b      	ldr	r3, [r3, #40]	@ 0x28
 8001ae2:	4a32      	ldr	r2, [pc, #200]	@ (8001bac <HAL_RCC_OscConfig+0xcc0>)
 8001ae4:	f043 0310 	orr.w	r3, r3, #16
 8001ae8:	6293      	str	r3, [r2, #40]	@ 0x28

        assert_param(IS_RCC_PLLRGE_VALUE(pRCC_OscInitStruct->PLL.PLLRGE));

        /* Select PLL1 input reference frequency range: VCI */
        __HAL_RCC_PLL_VCIRANGE(pRCC_OscInitStruct->PLL.PLLRGE);
 8001aea:	4b30      	ldr	r3, [pc, #192]	@ (8001bac <HAL_RCC_OscConfig+0xcc0>)
 8001aec:	6a9b      	ldr	r3, [r3, #40]	@ 0x28
 8001aee:	f023 020c 	bic.w	r2, r3, #12
 8001af2:	687b      	ldr	r3, [r7, #4]
 8001af4:	6d9b      	ldr	r3, [r3, #88]	@ 0x58
 8001af6:	492d      	ldr	r1, [pc, #180]	@ (8001bac <HAL_RCC_OscConfig+0xcc0>)
 8001af8:	4313      	orrs	r3, r2
 8001afa:	628b      	str	r3, [r1, #40]	@ 0x28

        if (pwrboosten == SET)
 8001afc:	f897 3037 	ldrb.w	r3, [r7, #55]	@ 0x37
 8001b00:	2b01      	cmp	r3, #1
 8001b02:	d105      	bne.n	8001b10 <HAL_RCC_OscConfig+0xc24>
        {
          /* Enable the EPOD to reach max frequency */
          SET_BIT(PWR->VOSR, PWR_VOSR_BOOSTEN);
 8001b04:	4b2a      	ldr	r3, [pc, #168]	@ (8001bb0 <HAL_RCC_OscConfig+0xcc4>)
 8001b06:	68db      	ldr	r3, [r3, #12]
 8001b08:	4a29      	ldr	r2, [pc, #164]	@ (8001bb0 <HAL_RCC_OscConfig+0xcc4>)
 8001b0a:	f443 2380 	orr.w	r3, r3, #262144	@ 0x40000
 8001b0e:	60d3      	str	r3, [r2, #12]
        }

        /* Restore clock configuration if changed */
        if (pwrclkchanged == SET)
 8001b10:	f897 3034 	ldrb.w	r3, [r7, #52]	@ 0x34
 8001b14:	2b01      	cmp	r3, #1
 8001b16:	d107      	bne.n	8001b28 <HAL_RCC_OscConfig+0xc3c>
        {
          __HAL_RCC_PWR_CLK_DISABLE();
 8001b18:	4b24      	ldr	r3, [pc, #144]	@ (8001bac <HAL_RCC_OscConfig+0xcc0>)
 8001b1a:	f8d3 3094 	ldr.w	r3, [r3, #148]	@ 0x94
 8001b1e:	4a23      	ldr	r2, [pc, #140]	@ (8001bac <HAL_RCC_OscConfig+0xcc0>)
 8001b20:	f023 0304 	bic.w	r3, r3, #4
 8001b24:	f8c2 3094 	str.w	r3, [r2, #148]	@ 0x94
        }

        /* Enable the main PLL */
        __HAL_RCC_PLL_ENABLE();
 8001b28:	4b20      	ldr	r3, [pc, #128]	@ (8001bac <HAL_RCC_OscConfig+0xcc0>)
 8001b2a:	681b      	ldr	r3, [r3, #0]
 8001b2c:	4a1f      	ldr	r2, [pc, #124]	@ (8001bac <HAL_RCC_OscConfig+0xcc0>)
 8001b2e:	f043 7380 	orr.w	r3, r3, #16777216	@ 0x1000000
 8001b32:	6013      	str	r3, [r2, #0]

        tickstart = HAL_GetTick();
 8001b34:	f7fe fd78 	bl	8000628 <HAL_GetTick>
 8001b38:	62b8      	str	r0, [r7, #40]	@ 0x28

        /* Wait till PLL is ready */
        while (READ_BIT(RCC->CR, RCC_CR_PLL1RDY) == 0U)
 8001b3a:	e008      	b.n	8001b4e <HAL_RCC_OscConfig+0xc62>
        {
          if ((HAL_GetTick() - tickstart) > PLL_TIMEOUT_VALUE)
 8001b3c:	f7fe fd74 	bl	8000628 <HAL_GetTick>
 8001b40:	4602      	mov	r2, r0
 8001b42:	6abb      	ldr	r3, [r7, #40]	@ 0x28
 8001b44:	1ad3      	subs	r3, r2, r3
 8001b46:	2b02      	cmp	r3, #2
 8001b48:	d901      	bls.n	8001b4e <HAL_RCC_OscConfig+0xc62>
          {
            return HAL_TIMEOUT;
 8001b4a:	2303      	movs	r3, #3
 8001b4c:	e09f      	b.n	8001c8e <HAL_RCC_OscConfig+0xda2>
        while (READ_BIT(RCC->CR, RCC_CR_PLL1RDY) == 0U)
 8001b4e:	4b17      	ldr	r3, [pc, #92]	@ (8001bac <HAL_RCC_OscConfig+0xcc0>)
 8001b50:	681b      	ldr	r3, [r3, #0]
 8001b52:	f003 7300 	and.w	r3, r3, #33554432	@ 0x2000000
 8001b56:	2b00      	cmp	r3, #0
 8001b58:	d0f0      	beq.n	8001b3c <HAL_RCC_OscConfig+0xc50>
          }
        }

        /* Enable PLL System Clock output */
        __HAL_RCC_PLLCLKOUT_ENABLE(RCC_PLL1_DIVR);
 8001b5a:	4b14      	ldr	r3, [pc, #80]	@ (8001bac <HAL_RCC_OscConfig+0xcc0>)
 8001b5c:	6a9b      	ldr	r3, [r3, #40]	@ 0x28
 8001b5e:	4a13      	ldr	r2, [pc, #76]	@ (8001bac <HAL_RCC_OscConfig+0xcc0>)
 8001b60:	f443 2380 	orr.w	r3, r3, #262144	@ 0x40000
 8001b64:	6293      	str	r3, [r2, #40]	@ 0x28
 8001b66:	e091      	b.n	8001c8c <HAL_RCC_OscConfig+0xda0>

      }
      else
      {
        /* Disable the main PLL */
        __HAL_RCC_PLL_DISABLE();
 8001b68:	4b10      	ldr	r3, [pc, #64]	@ (8001bac <HAL_RCC_OscConfig+0xcc0>)
 8001b6a:	681b      	ldr	r3, [r3, #0]
 8001b6c:	4a0f      	ldr	r2, [pc, #60]	@ (8001bac <HAL_RCC_OscConfig+0xcc0>)
 8001b6e:	f023 7380 	bic.w	r3, r3, #16777216	@ 0x1000000
 8001b72:	6013      	str	r3, [r2, #0]

        tickstart = HAL_GetTick();
 8001b74:	f7fe fd58 	bl	8000628 <HAL_GetTick>
 8001b78:	62b8      	str	r0, [r7, #40]	@ 0x28

        /* Wait till PLL is disabled */
        while (READ_BIT(RCC->CR, RCC_CR_PLL1RDY) != 0U)
 8001b7a:	e008      	b.n	8001b8e <HAL_RCC_OscConfig+0xca2>
        {
          if ((HAL_GetTick() - tickstart) > PLL_TIMEOUT_VALUE)
 8001b7c:	f7fe fd54 	bl	8000628 <HAL_GetTick>
 8001b80:	4602      	mov	r2, r0
 8001b82:	6abb      	ldr	r3, [r7, #40]	@ 0x28
 8001b84:	1ad3      	subs	r3, r2, r3
 8001b86:	2b02      	cmp	r3, #2
 8001b88:	d901      	bls.n	8001b8e <HAL_RCC_OscConfig+0xca2>
          {
            return HAL_TIMEOUT;
 8001b8a:	2303      	movs	r3, #3
 8001b8c:	e07f      	b.n	8001c8e <HAL_RCC_OscConfig+0xda2>
        while (READ_BIT(RCC->CR, RCC_CR_PLL1RDY) != 0U)
 8001b8e:	4b07      	ldr	r3, [pc, #28]	@ (8001bac <HAL_RCC_OscConfig+0xcc0>)
 8001b90:	681b      	ldr	r3, [r3, #0]
 8001b92:	f003 7300 	and.w	r3, r3, #33554432	@ 0x2000000
 8001b96:	2b00      	cmp	r3, #0
 8001b98:	d1f0      	bne.n	8001b7c <HAL_RCC_OscConfig+0xc90>
          }
        }

        /* Unselect main PLL clock source and disable main PLL outputs to save power */
        RCC->PLL1CFGR &= ~(RCC_PLL1CFGR_PLL1SRC | RCC_PLL1CFGR_PLL1PEN | RCC_PLL1CFGR_PLL1QEN | RCC_PLL1CFGR_PLL1REN);
 8001b9a:	4b04      	ldr	r3, [pc, #16]	@ (8001bac <HAL_RCC_OscConfig+0xcc0>)
 8001b9c:	6a9b      	ldr	r3, [r3, #40]	@ 0x28
 8001b9e:	4a03      	ldr	r2, [pc, #12]	@ (8001bac <HAL_RCC_OscConfig+0xcc0>)
 8001ba0:	f423 23e0 	bic.w	r3, r3, #458752	@ 0x70000
 8001ba4:	f023 0303 	bic.w	r3, r3, #3
 8001ba8:	6293      	str	r3, [r2, #40]	@ 0x28
 8001baa:	e06f      	b.n	8001c8c <HAL_RCC_OscConfig+0xda0>
 8001bac:	46020c00 	.word	0x46020c00
 8001bb0:	46020800 	.word	0x46020800
 8001bb4:	80800000 	.word	0x80800000
      }
    }
    else
    {
      /* Do not return HAL_ERROR if request repeats the current configuration */
      temp1_pllckcfg = RCC->PLL1CFGR;
 8001bb8:	4b37      	ldr	r3, [pc, #220]	@ (8001c98 <HAL_RCC_OscConfig+0xdac>)
 8001bba:	6a9b      	ldr	r3, [r3, #40]	@ 0x28
 8001bbc:	61fb      	str	r3, [r7, #28]
      temp2_pllckcfg = RCC->PLL1DIVR;
 8001bbe:	4b36      	ldr	r3, [pc, #216]	@ (8001c98 <HAL_RCC_OscConfig+0xdac>)
 8001bc0:	6b5b      	ldr	r3, [r3, #52]	@ 0x34
 8001bc2:	61bb      	str	r3, [r7, #24]
      if (((pRCC_OscInitStruct->PLL.PLLState) == RCC_PLL_OFF) ||
 8001bc4:	687b      	ldr	r3, [r7, #4]
 8001bc6:	6b9b      	ldr	r3, [r3, #56]	@ 0x38
 8001bc8:	2b01      	cmp	r3, #1
 8001bca:	d039      	beq.n	8001c40 <HAL_RCC_OscConfig+0xd54>
          (READ_BIT(temp1_pllckcfg, RCC_PLL1CFGR_PLL1SRC) != pRCC_OscInitStruct->PLL.PLLSource) ||
 8001bcc:	69fb      	ldr	r3, [r7, #28]
 8001bce:	f003 0203 	and.w	r2, r3, #3
 8001bd2:	687b      	ldr	r3, [r7, #4]
 8001bd4:	6bdb      	ldr	r3, [r3, #60]	@ 0x3c
      if (((pRCC_OscInitStruct->PLL.PLLState) == RCC_PLL_OFF) ||
 8001bd6:	429a      	cmp	r2, r3
 8001bd8:	d132      	bne.n	8001c40 <HAL_RCC_OscConfig+0xd54>
          ((READ_BIT(temp1_pllckcfg, RCC_PLL1CFGR_PLL1M) >> \
 8001bda:	69fb      	ldr	r3, [r7, #28]
 8001bdc:	0a1b      	lsrs	r3, r3, #8
 8001bde:	f003 020f 	and.w	r2, r3, #15
            RCC_PLL1CFGR_PLL1M_Pos) != (pRCC_OscInitStruct->PLL.PLLM - 1U)) ||
 8001be2:	687b      	ldr	r3, [r7, #4]
 8001be4:	6c1b      	ldr	r3, [r3, #64]	@ 0x40
 8001be6:	3b01      	subs	r3, #1
          (READ_BIT(temp1_pllckcfg, RCC_PLL1CFGR_PLL1SRC) != pRCC_OscInitStruct->PLL.PLLSource) ||
 8001be8:	429a      	cmp	r2, r3
 8001bea:	d129      	bne.n	8001c40 <HAL_RCC_OscConfig+0xd54>
          (READ_BIT(temp1_pllckcfg, RCC_PLL1CFGR_PLL1MBOOST) != pRCC_OscInitStruct->PLL.PLLMBOOST) ||
 8001bec:	69fb      	ldr	r3, [r7, #28]
 8001bee:	f403 4270 	and.w	r2, r3, #61440	@ 0xf000
 8001bf2:	687b      	ldr	r3, [r7, #4]
 8001bf4:	6c5b      	ldr	r3, [r3, #68]	@ 0x44
            RCC_PLL1CFGR_PLL1M_Pos) != (pRCC_OscInitStruct->PLL.PLLM - 1U)) ||
 8001bf6:	429a      	cmp	r2, r3
 8001bf8:	d122      	bne.n	8001c40 <HAL_RCC_OscConfig+0xd54>
          (READ_BIT(temp2_pllckcfg, RCC_PLL1DIVR_PLL1N) != (pRCC_OscInitStruct->PLL.PLLN - 1U)) ||
 8001bfa:	69bb      	ldr	r3, [r7, #24]
 8001bfc:	f3c3 0208 	ubfx	r2, r3, #0, #9
 8001c00:	687b      	ldr	r3, [r7, #4]
 8001c02:	6c9b      	ldr	r3, [r3, #72]	@ 0x48
 8001c04:	3b01      	subs	r3, #1
          (READ_BIT(temp1_pllckcfg, RCC_PLL1CFGR_PLL1MBOOST) != pRCC_OscInitStruct->PLL.PLLMBOOST) ||
 8001c06:	429a      	cmp	r2, r3
 8001c08:	d11a      	bne.n	8001c40 <HAL_RCC_OscConfig+0xd54>
          ((READ_BIT(temp2_pllckcfg, RCC_PLL1DIVR_PLL1P) >> \
 8001c0a:	69bb      	ldr	r3, [r7, #24]
 8001c0c:	0a5b      	lsrs	r3, r3, #9
 8001c0e:	f003 027f 	and.w	r2, r3, #127	@ 0x7f
            RCC_PLL1DIVR_PLL1P_Pos) != (pRCC_OscInitStruct->PLL.PLLP - 1U)) ||
 8001c12:	687b      	ldr	r3, [r7, #4]
 8001c14:	6cdb      	ldr	r3, [r3, #76]	@ 0x4c
 8001c16:	3b01      	subs	r3, #1
          (READ_BIT(temp2_pllckcfg, RCC_PLL1DIVR_PLL1N) != (pRCC_OscInitStruct->PLL.PLLN - 1U)) ||
 8001c18:	429a      	cmp	r2, r3
 8001c1a:	d111      	bne.n	8001c40 <HAL_RCC_OscConfig+0xd54>
          ((READ_BIT(temp2_pllckcfg, RCC_PLL1DIVR_PLL1Q) >> \
 8001c1c:	69bb      	ldr	r3, [r7, #24]
 8001c1e:	0c1b      	lsrs	r3, r3, #16
 8001c20:	f003 027f 	and.w	r2, r3, #127	@ 0x7f
            RCC_PLL1DIVR_PLL1Q_Pos) != (pRCC_OscInitStruct->PLL.PLLQ - 1U)) ||
 8001c24:	687b      	ldr	r3, [r7, #4]
 8001c26:	6d1b      	ldr	r3, [r3, #80]	@ 0x50
 8001c28:	3b01      	subs	r3, #1
            RCC_PLL1DIVR_PLL1P_Pos) != (pRCC_OscInitStruct->PLL.PLLP - 1U)) ||
 8001c2a:	429a      	cmp	r2, r3
 8001c2c:	d108      	bne.n	8001c40 <HAL_RCC_OscConfig+0xd54>
          ((READ_BIT(temp2_pllckcfg, RCC_PLL1DIVR_PLL1R) >> \
 8001c2e:	69bb      	ldr	r3, [r7, #24]
 8001c30:	0e1b      	lsrs	r3, r3, #24
 8001c32:	f003 027f 	and.w	r2, r3, #127	@ 0x7f
            RCC_PLL1DIVR_PLL1R_Pos) != (pRCC_OscInitStruct->PLL.PLLR - 1U)))
 8001c36:	687b      	ldr	r3, [r7, #4]
 8001c38:	6d5b      	ldr	r3, [r3, #84]	@ 0x54
 8001c3a:	3b01      	subs	r3, #1
            RCC_PLL1DIVR_PLL1Q_Pos) != (pRCC_OscInitStruct->PLL.PLLQ - 1U)) ||
 8001c3c:	429a      	cmp	r2, r3
 8001c3e:	d001      	beq.n	8001c44 <HAL_RCC_OscConfig+0xd58>
      {
        return HAL_ERROR;
 8001c40:	2301      	movs	r3, #1
 8001c42:	e024      	b.n	8001c8e <HAL_RCC_OscConfig+0xda2>
      }

      /* FRACN1 on-the-fly value update */
      if ((READ_BIT(RCC->PLL1FRACR, RCC_PLL1FRACR_PLL1FRACN) >> \
 8001c44:	4b14      	ldr	r3, [pc, #80]	@ (8001c98 <HAL_RCC_OscConfig+0xdac>)
 8001c46:	6b9b      	ldr	r3, [r3, #56]	@ 0x38
 8001c48:	08db      	lsrs	r3, r3, #3
 8001c4a:	f3c3 020c 	ubfx	r2, r3, #0, #13
           RCC_PLL1FRACR_PLL1FRACN_Pos) != (pRCC_OscInitStruct->PLL.PLLFRACN))
 8001c4e:	687b      	ldr	r3, [r7, #4]
 8001c50:	6ddb      	ldr	r3, [r3, #92]	@ 0x5c
      if ((READ_BIT(RCC->PLL1FRACR, RCC_PLL1FRACR_PLL1FRACN) >> \
 8001c52:	429a      	cmp	r2, r3
 8001c54:	d01a      	beq.n	8001c8c <HAL_RCC_OscConfig+0xda0>
      {
        assert_param(IS_RCC_PLL_FRACN_VALUE(pRCC_OscInitStruct->PLL.PLLFRACN));

        /* Disable PLL1FRACN. */
        __HAL_RCC_PLL_FRACN_DISABLE();
 8001c56:	4b10      	ldr	r3, [pc, #64]	@ (8001c98 <HAL_RCC_OscConfig+0xdac>)
 8001c58:	6a9b      	ldr	r3, [r3, #40]	@ 0x28
 8001c5a:	4a0f      	ldr	r2, [pc, #60]	@ (8001c98 <HAL_RCC_OscConfig+0xdac>)
 8001c5c:	f023 0310 	bic.w	r3, r3, #16
 8001c60:	6293      	str	r3, [r2, #40]	@ 0x28

        /* Get Start Tick*/
        tickstart = HAL_GetTick();
 8001c62:	f7fe fce1 	bl	8000628 <HAL_GetTick>
 8001c66:	62b8      	str	r0, [r7, #40]	@ 0x28

        /* Wait at least 2 CK_REF (PLL1 input source divided by M) period to make sure next latched value
           will be taken into account. */
        while ((HAL_GetTick() - tickstart) < PLL_FRAC_WAIT_VALUE)
 8001c68:	bf00      	nop
 8001c6a:	f7fe fcdd 	bl	8000628 <HAL_GetTick>
 8001c6e:	4602      	mov	r2, r0
 8001c70:	6abb      	ldr	r3, [r7, #40]	@ 0x28
 8001c72:	4293      	cmp	r3, r2
 8001c74:	d0f9      	beq.n	8001c6a <HAL_RCC_OscConfig+0xd7e>
        {
        }

        /* Configure PLL PLL1FRACN */
        __HAL_RCC_PLL_FRACN_CONFIG(pRCC_OscInitStruct->PLL.PLLFRACN);
 8001c76:	687b      	ldr	r3, [r7, #4]
 8001c78:	6ddb      	ldr	r3, [r3, #92]	@ 0x5c
 8001c7a:	4a07      	ldr	r2, [pc, #28]	@ (8001c98 <HAL_RCC_OscConfig+0xdac>)
 8001c7c:	00db      	lsls	r3, r3, #3
 8001c7e:	6393      	str	r3, [r2, #56]	@ 0x38

        /* Enable PLL1FRACN to latch the new value. */
        __HAL_RCC_PLL_FRACN_ENABLE();
 8001c80:	4b05      	ldr	r3, [pc, #20]	@ (8001c98 <HAL_RCC_OscConfig+0xdac>)
 8001c82:	6a9b      	ldr	r3, [r3, #40]	@ 0x28
 8001c84:	4a04      	ldr	r2, [pc, #16]	@ (8001c98 <HAL_RCC_OscConfig+0xdac>)
 8001c86:	f043 0310 	orr.w	r3, r3, #16
 8001c8a:	6293      	str	r3, [r2, #40]	@ 0x28
      }
    }
  }
  return HAL_OK;
 8001c8c:	2300      	movs	r3, #0
}
 8001c8e:	4618      	mov	r0, r3
 8001c90:	3738      	adds	r7, #56	@ 0x38
 8001c92:	46bd      	mov	sp, r7
 8001c94:	bd80      	pop	{r7, pc}
 8001c96:	bf00      	nop
 8001c98:	46020c00 	.word	0x46020c00

08001c9c <HAL_RCC_ClockConfig>:
  *         HPRE[3:0] bits to ensure that HCLK not exceed the maximum allowed frequency
  *         (for more details refer to section above "Initialization/de-initialization functions")
  * @retval HAL status
  */
HAL_StatusTypeDef HAL_RCC_ClockConfig(const RCC_ClkInitTypeDef   *const pRCC_ClkInitStruct, uint32_t FLatency)
{
 8001c9c:	b580      	push	{r7, lr}
 8001c9e:	b086      	sub	sp, #24
 8001ca0:	af00      	add	r7, sp, #0
 8001ca2:	6078      	str	r0, [r7, #4]
 8001ca4:	6039      	str	r1, [r7, #0]
  HAL_StatusTypeDef status;
  uint32_t tickstart;

  /* Check Null pointer */
  if (pRCC_ClkInitStruct == NULL)
 8001ca6:	687b      	ldr	r3, [r7, #4]
 8001ca8:	2b00      	cmp	r3, #0
 8001caa:	d101      	bne.n	8001cb0 <HAL_RCC_ClockConfig+0x14>
  {
    return HAL_ERROR;
 8001cac:	2301      	movs	r3, #1
 8001cae:	e1d9      	b.n	8002064 <HAL_RCC_ClockConfig+0x3c8>
  /* To correctly read data from FLASH memory, the number of wait states (LATENCY)
   must be correctly programmed according to the frequency of the CPU clock
   (HCLK) and the supply voltage of the device */

  /* Increasing the number of wait states because of higher CPU frequency */
  if (FLatency > __HAL_FLASH_GET_LATENCY())
 8001cb0:	4b9b      	ldr	r3, [pc, #620]	@ (8001f20 <HAL_RCC_ClockConfig+0x284>)
 8001cb2:	681b      	ldr	r3, [r3, #0]
 8001cb4:	f003 030f 	and.w	r3, r3, #15
 8001cb8:	683a      	ldr	r2, [r7, #0]
 8001cba:	429a      	cmp	r2, r3
 8001cbc:	d910      	bls.n	8001ce0 <HAL_RCC_ClockConfig+0x44>
  {
    /* Program the new number of wait states to the LATENCY bits in the FLASH_ACR register */
    __HAL_FLASH_SET_LATENCY(FLatency);
 8001cbe:	4b98      	ldr	r3, [pc, #608]	@ (8001f20 <HAL_RCC_ClockConfig+0x284>)
 8001cc0:	681b      	ldr	r3, [r3, #0]
 8001cc2:	f023 020f 	bic.w	r2, r3, #15
 8001cc6:	4996      	ldr	r1, [pc, #600]	@ (8001f20 <HAL_RCC_ClockConfig+0x284>)
 8001cc8:	683b      	ldr	r3, [r7, #0]
 8001cca:	4313      	orrs	r3, r2
 8001ccc:	600b      	str	r3, [r1, #0]

    /* Check that the new number of wait states is taken into account to access the Flash
    memory by reading the FLASH_ACR register */
    if (__HAL_FLASH_GET_LATENCY() != FLatency)
 8001cce:	4b94      	ldr	r3, [pc, #592]	@ (8001f20 <HAL_RCC_ClockConfig+0x284>)
 8001cd0:	681b      	ldr	r3, [r3, #0]
 8001cd2:	f003 030f 	and.w	r3, r3, #15
 8001cd6:	683a      	ldr	r2, [r7, #0]
 8001cd8:	429a      	cmp	r2, r3
 8001cda:	d001      	beq.n	8001ce0 <HAL_RCC_ClockConfig+0x44>
    {
      return HAL_ERROR;
 8001cdc:	2301      	movs	r3, #1
 8001cde:	e1c1      	b.n	8002064 <HAL_RCC_ClockConfig+0x3c8>
    }
  }

  /* Increasing the BUS frequency divider */
  /*-------------------------- PCLK3 Configuration ---------------------------*/
  if (((pRCC_ClkInitStruct->ClockType) & RCC_CLOCKTYPE_PCLK3) == RCC_CLOCKTYPE_PCLK3)
 8001ce0:	687b      	ldr	r3, [r7, #4]
 8001ce2:	681b      	ldr	r3, [r3, #0]
 8001ce4:	f003 0310 	and.w	r3, r3, #16
 8001ce8:	2b00      	cmp	r3, #0
 8001cea:	d010      	beq.n	8001d0e <HAL_RCC_ClockConfig+0x72>
  {
    if ((pRCC_ClkInitStruct->APB3CLKDivider) > (RCC->CFGR3 & RCC_CFGR3_PPRE3))
 8001cec:	687b      	ldr	r3, [r7, #4]
 8001cee:	695a      	ldr	r2, [r3, #20]
 8001cf0:	4b8c      	ldr	r3, [pc, #560]	@ (8001f24 <HAL_RCC_ClockConfig+0x288>)
 8001cf2:	6a5b      	ldr	r3, [r3, #36]	@ 0x24
 8001cf4:	f003 0370 	and.w	r3, r3, #112	@ 0x70
 8001cf8:	429a      	cmp	r2, r3
 8001cfa:	d908      	bls.n	8001d0e <HAL_RCC_ClockConfig+0x72>
    {
      assert_param(IS_RCC_PCLK(pRCC_ClkInitStruct->APB3CLKDivider));
      MODIFY_REG(RCC->CFGR3, RCC_CFGR3_PPRE3, pRCC_ClkInitStruct->APB3CLKDivider);
 8001cfc:	4b89      	ldr	r3, [pc, #548]	@ (8001f24 <HAL_RCC_ClockConfig+0x288>)
 8001cfe:	6a5b      	ldr	r3, [r3, #36]	@ 0x24
 8001d00:	f023 0270 	bic.w	r2, r3, #112	@ 0x70
 8001d04:	687b      	ldr	r3, [r7, #4]
 8001d06:	695b      	ldr	r3, [r3, #20]
 8001d08:	4986      	ldr	r1, [pc, #536]	@ (8001f24 <HAL_RCC_ClockConfig+0x288>)
 8001d0a:	4313      	orrs	r3, r2
 8001d0c:	624b      	str	r3, [r1, #36]	@ 0x24
    }
  }
  /*-------------------------- PCLK2 Configuration ---------------------------*/
  if (((pRCC_ClkInitStruct->ClockType) & RCC_CLOCKTYPE_PCLK2) == RCC_CLOCKTYPE_PCLK2)
 8001d0e:	687b      	ldr	r3, [r7, #4]
 8001d10:	681b      	ldr	r3, [r3, #0]
 8001d12:	f003 0308 	and.w	r3, r3, #8
 8001d16:	2b00      	cmp	r3, #0
 8001d18:	d012      	beq.n	8001d40 <HAL_RCC_ClockConfig+0xa4>
  {
    if ((pRCC_ClkInitStruct->APB2CLKDivider) > ((RCC->CFGR2 & RCC_CFGR2_PPRE2) >> 4))
 8001d1a:	687b      	ldr	r3, [r7, #4]
 8001d1c:	691a      	ldr	r2, [r3, #16]
 8001d1e:	4b81      	ldr	r3, [pc, #516]	@ (8001f24 <HAL_RCC_ClockConfig+0x288>)
 8001d20:	6a1b      	ldr	r3, [r3, #32]
 8001d22:	091b      	lsrs	r3, r3, #4
 8001d24:	f003 0370 	and.w	r3, r3, #112	@ 0x70
 8001d28:	429a      	cmp	r2, r3
 8001d2a:	d909      	bls.n	8001d40 <HAL_RCC_ClockConfig+0xa4>
    {
      assert_param(IS_RCC_PCLK(pRCC_ClkInitStruct->APB2CLKDivider));
      MODIFY_REG(RCC->CFGR2, RCC_CFGR2_PPRE2, ((pRCC_ClkInitStruct->APB2CLKDivider) << 4));
 8001d2c:	4b7d      	ldr	r3, [pc, #500]	@ (8001f24 <HAL_RCC_ClockConfig+0x288>)
 8001d2e:	6a1b      	ldr	r3, [r3, #32]
 8001d30:	f423 62e0 	bic.w	r2, r3, #1792	@ 0x700
 8001d34:	687b      	ldr	r3, [r7, #4]
 8001d36:	691b      	ldr	r3, [r3, #16]
 8001d38:	011b      	lsls	r3, r3, #4
 8001d3a:	497a      	ldr	r1, [pc, #488]	@ (8001f24 <HAL_RCC_ClockConfig+0x288>)
 8001d3c:	4313      	orrs	r3, r2
 8001d3e:	620b      	str	r3, [r1, #32]
    }
  }

  /*-------------------------- PCLK1 Configuration ---------------------------*/
  if (((pRCC_ClkInitStruct->ClockType) & RCC_CLOCKTYPE_PCLK1) == RCC_CLOCKTYPE_PCLK1)
 8001d40:	687b      	ldr	r3, [r7, #4]
 8001d42:	681b      	ldr	r3, [r3, #0]
 8001d44:	f003 0304 	and.w	r3, r3, #4
 8001d48:	2b00      	cmp	r3, #0
 8001d4a:	d010      	beq.n	8001d6e <HAL_RCC_ClockConfig+0xd2>
  {
    if ((pRCC_ClkInitStruct->APB1CLKDivider) > (RCC->CFGR2 & RCC_CFGR2_PPRE1))
 8001d4c:	687b      	ldr	r3, [r7, #4]
 8001d4e:	68da      	ldr	r2, [r3, #12]
 8001d50:	4b74      	ldr	r3, [pc, #464]	@ (8001f24 <HAL_RCC_ClockConfig+0x288>)
 8001d52:	6a1b      	ldr	r3, [r3, #32]
 8001d54:	f003 0370 	and.w	r3, r3, #112	@ 0x70
 8001d58:	429a      	cmp	r2, r3
 8001d5a:	d908      	bls.n	8001d6e <HAL_RCC_ClockConfig+0xd2>
    {
      assert_param(IS_RCC_PCLK(pRCC_ClkInitStruct->APB1CLKDivider));
      MODIFY_REG(RCC->CFGR2, RCC_CFGR2_PPRE1, pRCC_ClkInitStruct->APB1CLKDivider);
 8001d5c:	4b71      	ldr	r3, [pc, #452]	@ (8001f24 <HAL_RCC_ClockConfig+0x288>)
 8001d5e:	6a1b      	ldr	r3, [r3, #32]
 8001d60:	f023 0270 	bic.w	r2, r3, #112	@ 0x70
 8001d64:	687b      	ldr	r3, [r7, #4]
 8001d66:	68db      	ldr	r3, [r3, #12]
 8001d68:	496e      	ldr	r1, [pc, #440]	@ (8001f24 <HAL_RCC_ClockConfig+0x288>)
 8001d6a:	4313      	orrs	r3, r2
 8001d6c:	620b      	str	r3, [r1, #32]
    }
  }

  /*-------------------------- HCLK Configuration --------------------------*/
  if (((pRCC_ClkInitStruct->ClockType) & RCC_CLOCKTYPE_HCLK) == RCC_CLOCKTYPE_HCLK)
 8001d6e:	687b      	ldr	r3, [r7, #4]
 8001d70:	681b      	ldr	r3, [r3, #0]
 8001d72:	f003 0302 	and.w	r3, r3, #2
 8001d76:	2b00      	cmp	r3, #0
 8001d78:	d010      	beq.n	8001d9c <HAL_RCC_ClockConfig+0x100>
  {
    if ((pRCC_ClkInitStruct->AHBCLKDivider) > (RCC->CFGR2 & RCC_CFGR2_HPRE))
 8001d7a:	687b      	ldr	r3, [r7, #4]
 8001d7c:	689a      	ldr	r2, [r3, #8]
 8001d7e:	4b69      	ldr	r3, [pc, #420]	@ (8001f24 <HAL_RCC_ClockConfig+0x288>)
 8001d80:	6a1b      	ldr	r3, [r3, #32]
 8001d82:	f003 030f 	and.w	r3, r3, #15
 8001d86:	429a      	cmp	r2, r3
 8001d88:	d908      	bls.n	8001d9c <HAL_RCC_ClockConfig+0x100>
    {
      assert_param(IS_RCC_HCLK(pRCC_ClkInitStruct->AHBCLKDivider));
      MODIFY_REG(RCC->CFGR2, RCC_CFGR2_HPRE, pRCC_ClkInitStruct->AHBCLKDivider);
 8001d8a:	4b66      	ldr	r3, [pc, #408]	@ (8001f24 <HAL_RCC_ClockConfig+0x288>)
 8001d8c:	6a1b      	ldr	r3, [r3, #32]
 8001d8e:	f023 020f 	bic.w	r2, r3, #15
 8001d92:	687b      	ldr	r3, [r7, #4]
 8001d94:	689b      	ldr	r3, [r3, #8]
 8001d96:	4963      	ldr	r1, [pc, #396]	@ (8001f24 <HAL_RCC_ClockConfig+0x288>)
 8001d98:	4313      	orrs	r3, r2
 8001d9a:	620b      	str	r3, [r1, #32]
    }
  }

  /*------------------------- SYSCLK Configuration ---------------------------*/
  if (((pRCC_ClkInitStruct->ClockType) & RCC_CLOCKTYPE_SYSCLK) == RCC_CLOCKTYPE_SYSCLK)
 8001d9c:	687b      	ldr	r3, [r7, #4]
 8001d9e:	681b      	ldr	r3, [r3, #0]
 8001da0:	f003 0301 	and.w	r3, r3, #1
 8001da4:	2b00      	cmp	r3, #0
 8001da6:	f000 80d2 	beq.w	8001f4e <HAL_RCC_ClockConfig+0x2b2>
  {
    assert_param(IS_RCC_SYSCLKSOURCE(pRCC_ClkInitStruct->SYSCLKSource));
    FlagStatus  pwrclkchanged = RESET;
 8001daa:	2300      	movs	r3, #0
 8001dac:	75fb      	strb	r3, [r7, #23]

    /* PLL is selected as System Clock Source */
    if (pRCC_ClkInitStruct->SYSCLKSource == RCC_SYSCLKSOURCE_PLLCLK)
 8001dae:	687b      	ldr	r3, [r7, #4]
 8001db0:	685b      	ldr	r3, [r3, #4]
 8001db2:	2b03      	cmp	r3, #3
 8001db4:	d143      	bne.n	8001e3e <HAL_RCC_ClockConfig+0x1a2>
    {
      if (__HAL_RCC_PWR_IS_CLK_DISABLED())
 8001db6:	4b5b      	ldr	r3, [pc, #364]	@ (8001f24 <HAL_RCC_ClockConfig+0x288>)
 8001db8:	f8d3 3094 	ldr.w	r3, [r3, #148]	@ 0x94
 8001dbc:	f003 0304 	and.w	r3, r3, #4
 8001dc0:	2b00      	cmp	r3, #0
 8001dc2:	d110      	bne.n	8001de6 <HAL_RCC_ClockConfig+0x14a>
      {
        __HAL_RCC_PWR_CLK_ENABLE();
 8001dc4:	4b57      	ldr	r3, [pc, #348]	@ (8001f24 <HAL_RCC_ClockConfig+0x288>)
 8001dc6:	f8d3 3094 	ldr.w	r3, [r3, #148]	@ 0x94
 8001dca:	4a56      	ldr	r2, [pc, #344]	@ (8001f24 <HAL_RCC_ClockConfig+0x288>)
 8001dcc:	f043 0304 	orr.w	r3, r3, #4
 8001dd0:	f8c2 3094 	str.w	r3, [r2, #148]	@ 0x94
 8001dd4:	4b53      	ldr	r3, [pc, #332]	@ (8001f24 <HAL_RCC_ClockConfig+0x288>)
 8001dd6:	f8d3 3094 	ldr.w	r3, [r3, #148]	@ 0x94
 8001dda:	f003 0304 	and.w	r3, r3, #4
 8001dde:	60bb      	str	r3, [r7, #8]
 8001de0:	68bb      	ldr	r3, [r7, #8]
        pwrclkchanged = SET;
 8001de2:	2301      	movs	r3, #1
 8001de4:	75fb      	strb	r3, [r7, #23]
      }
      tickstart = HAL_GetTick();
 8001de6:	f7fe fc1f 	bl	8000628 <HAL_GetTick>
 8001dea:	6138      	str	r0, [r7, #16]
      /* Check if EPOD is enabled */
      if (READ_BIT(PWR->VOSR, PWR_VOSR_BOOSTEN) != 0U)
 8001dec:	4b4e      	ldr	r3, [pc, #312]	@ (8001f28 <HAL_RCC_ClockConfig+0x28c>)
 8001dee:	68db      	ldr	r3, [r3, #12]
 8001df0:	f403 2380 	and.w	r3, r3, #262144	@ 0x40000
 8001df4:	2b00      	cmp	r3, #0
 8001df6:	d00f      	beq.n	8001e18 <HAL_RCC_ClockConfig+0x17c>
      {
        /* Wait till BOOST is ready */
        while (READ_BIT(PWR->VOSR, PWR_VOSR_BOOSTRDY) == 0U)
 8001df8:	e008      	b.n	8001e0c <HAL_RCC_ClockConfig+0x170>
        {
          if ((HAL_GetTick() - tickstart) > EPOD_TIMEOUT_VALUE)
 8001dfa:	f7fe fc15 	bl	8000628 <HAL_GetTick>
 8001dfe:	4602      	mov	r2, r0
 8001e00:	693b      	ldr	r3, [r7, #16]
 8001e02:	1ad3      	subs	r3, r2, r3
 8001e04:	2b02      	cmp	r3, #2
 8001e06:	d901      	bls.n	8001e0c <HAL_RCC_ClockConfig+0x170>
          {
            return HAL_TIMEOUT;
 8001e08:	2303      	movs	r3, #3
 8001e0a:	e12b      	b.n	8002064 <HAL_RCC_ClockConfig+0x3c8>
        while (READ_BIT(PWR->VOSR, PWR_VOSR_BOOSTRDY) == 0U)
 8001e0c:	4b46      	ldr	r3, [pc, #280]	@ (8001f28 <HAL_RCC_ClockConfig+0x28c>)
 8001e0e:	68db      	ldr	r3, [r3, #12]
 8001e10:	f403 4380 	and.w	r3, r3, #16384	@ 0x4000
 8001e14:	2b00      	cmp	r3, #0
 8001e16:	d0f0      	beq.n	8001dfa <HAL_RCC_ClockConfig+0x15e>
          }
        }
      }

      /* Restore clock configuration if changed */
      if (pwrclkchanged == SET)
 8001e18:	7dfb      	ldrb	r3, [r7, #23]
 8001e1a:	2b01      	cmp	r3, #1
 8001e1c:	d107      	bne.n	8001e2e <HAL_RCC_ClockConfig+0x192>
      {
        __HAL_RCC_PWR_CLK_DISABLE();
 8001e1e:	4b41      	ldr	r3, [pc, #260]	@ (8001f24 <HAL_RCC_ClockConfig+0x288>)
 8001e20:	f8d3 3094 	ldr.w	r3, [r3, #148]	@ 0x94
 8001e24:	4a3f      	ldr	r2, [pc, #252]	@ (8001f24 <HAL_RCC_ClockConfig+0x288>)
 8001e26:	f023 0304 	bic.w	r3, r3, #4
 8001e2a:	f8c2 3094 	str.w	r3, [r2, #148]	@ 0x94
      }

      /* Check the PLL ready flag */
      if (READ_BIT(RCC->CR, RCC_CR_PLL1RDY) == 0U)
 8001e2e:	4b3d      	ldr	r3, [pc, #244]	@ (8001f24 <HAL_RCC_ClockConfig+0x288>)
 8001e30:	681b      	ldr	r3, [r3, #0]
 8001e32:	f003 7300 	and.w	r3, r3, #33554432	@ 0x2000000
 8001e36:	2b00      	cmp	r3, #0
 8001e38:	d121      	bne.n	8001e7e <HAL_RCC_ClockConfig+0x1e2>
      {
        return HAL_ERROR;
 8001e3a:	2301      	movs	r3, #1
 8001e3c:	e112      	b.n	8002064 <HAL_RCC_ClockConfig+0x3c8>
      }
    }
    else
    {
      /* HSE is selected as System Clock Source */
      if (pRCC_ClkInitStruct->SYSCLKSource == RCC_SYSCLKSOURCE_HSE)
 8001e3e:	687b      	ldr	r3, [r7, #4]
 8001e40:	685b      	ldr	r3, [r3, #4]
 8001e42:	2b02      	cmp	r3, #2
 8001e44:	d107      	bne.n	8001e56 <HAL_RCC_ClockConfig+0x1ba>
      {
        /* Check the HSE ready flag */
        if (READ_BIT(RCC->CR, RCC_CR_HSERDY) == 0U)
 8001e46:	4b37      	ldr	r3, [pc, #220]	@ (8001f24 <HAL_RCC_ClockConfig+0x288>)
 8001e48:	681b      	ldr	r3, [r3, #0]
 8001e4a:	f403 3300 	and.w	r3, r3, #131072	@ 0x20000
 8001e4e:	2b00      	cmp	r3, #0
 8001e50:	d115      	bne.n	8001e7e <HAL_RCC_ClockConfig+0x1e2>
        {
          return HAL_ERROR;
 8001e52:	2301      	movs	r3, #1
 8001e54:	e106      	b.n	8002064 <HAL_RCC_ClockConfig+0x3c8>
        }
      }
      /* MSI is selected as System Clock Source */
      else if (pRCC_ClkInitStruct->SYSCLKSource == RCC_SYSCLKSOURCE_MSI)
 8001e56:	687b      	ldr	r3, [r7, #4]
 8001e58:	685b      	ldr	r3, [r3, #4]
 8001e5a:	2b00      	cmp	r3, #0
 8001e5c:	d107      	bne.n	8001e6e <HAL_RCC_ClockConfig+0x1d2>
      {
        /* Check the MSI ready flag */
        if (READ_BIT(RCC->CR, RCC_CR_MSISRDY) == 0U)
 8001e5e:	4b31      	ldr	r3, [pc, #196]	@ (8001f24 <HAL_RCC_ClockConfig+0x288>)
 8001e60:	681b      	ldr	r3, [r3, #0]
 8001e62:	f003 0304 	and.w	r3, r3, #4
 8001e66:	2b00      	cmp	r3, #0
 8001e68:	d109      	bne.n	8001e7e <HAL_RCC_ClockConfig+0x1e2>
        {
          return HAL_ERROR;
 8001e6a:	2301      	movs	r3, #1
 8001e6c:	e0fa      	b.n	8002064 <HAL_RCC_ClockConfig+0x3c8>
      }
      /* HSI is selected as System Clock Source */
      else
      {
        /* Check the HSI ready flag */
        if (READ_BIT(RCC->CR, RCC_CR_HSIRDY) == 0U)
 8001e6e:	4b2d      	ldr	r3, [pc, #180]	@ (8001f24 <HAL_RCC_ClockConfig+0x288>)
 8001e70:	681b      	ldr	r3, [r3, #0]
 8001e72:	f403 6380 	and.w	r3, r3, #1024	@ 0x400
 8001e76:	2b00      	cmp	r3, #0
 8001e78:	d101      	bne.n	8001e7e <HAL_RCC_ClockConfig+0x1e2>
        {
          return HAL_ERROR;
 8001e7a:	2301      	movs	r3, #1
 8001e7c:	e0f2      	b.n	8002064 <HAL_RCC_ClockConfig+0x3c8>
        }
      }
    }

    MODIFY_REG(RCC->CFGR1, RCC_CFGR1_SW, pRCC_ClkInitStruct->SYSCLKSource);
 8001e7e:	4b29      	ldr	r3, [pc, #164]	@ (8001f24 <HAL_RCC_ClockConfig+0x288>)
 8001e80:	69db      	ldr	r3, [r3, #28]
 8001e82:	f023 0203 	bic.w	r2, r3, #3
 8001e86:	687b      	ldr	r3, [r7, #4]
 8001e88:	685b      	ldr	r3, [r3, #4]
 8001e8a:	4926      	ldr	r1, [pc, #152]	@ (8001f24 <HAL_RCC_ClockConfig+0x288>)
 8001e8c:	4313      	orrs	r3, r2
 8001e8e:	61cb      	str	r3, [r1, #28]

    tickstart = HAL_GetTick();
 8001e90:	f7fe fbca 	bl	8000628 <HAL_GetTick>
 8001e94:	6138      	str	r0, [r7, #16]

    if (pRCC_ClkInitStruct->SYSCLKSource == RCC_SYSCLKSOURCE_PLLCLK)
 8001e96:	687b      	ldr	r3, [r7, #4]
 8001e98:	685b      	ldr	r3, [r3, #4]
 8001e9a:	2b03      	cmp	r3, #3
 8001e9c:	d112      	bne.n	8001ec4 <HAL_RCC_ClockConfig+0x228>
    {
      while (__HAL_RCC_GET_SYSCLK_SOURCE() != RCC_SYSCLKSOURCE_STATUS_PLLCLK)
 8001e9e:	e00a      	b.n	8001eb6 <HAL_RCC_ClockConfig+0x21a>
      {
        if ((HAL_GetTick() - tickstart) > CLOCKSWITCH_TIMEOUT_VALUE)
 8001ea0:	f7fe fbc2 	bl	8000628 <HAL_GetTick>
 8001ea4:	4602      	mov	r2, r0
 8001ea6:	693b      	ldr	r3, [r7, #16]
 8001ea8:	1ad3      	subs	r3, r2, r3
 8001eaa:	f241 3288 	movw	r2, #5000	@ 0x1388
 8001eae:	4293      	cmp	r3, r2
 8001eb0:	d901      	bls.n	8001eb6 <HAL_RCC_ClockConfig+0x21a>
        {
          return HAL_TIMEOUT;
 8001eb2:	2303      	movs	r3, #3
 8001eb4:	e0d6      	b.n	8002064 <HAL_RCC_ClockConfig+0x3c8>
      while (__HAL_RCC_GET_SYSCLK_SOURCE() != RCC_SYSCLKSOURCE_STATUS_PLLCLK)
 8001eb6:	4b1b      	ldr	r3, [pc, #108]	@ (8001f24 <HAL_RCC_ClockConfig+0x288>)
 8001eb8:	69db      	ldr	r3, [r3, #28]
 8001eba:	f003 030c 	and.w	r3, r3, #12
 8001ebe:	2b0c      	cmp	r3, #12
 8001ec0:	d1ee      	bne.n	8001ea0 <HAL_RCC_ClockConfig+0x204>
 8001ec2:	e044      	b.n	8001f4e <HAL_RCC_ClockConfig+0x2b2>
        }
      }
    }
    else
    {
      if (pRCC_ClkInitStruct->SYSCLKSource == RCC_SYSCLKSOURCE_HSE)
 8001ec4:	687b      	ldr	r3, [r7, #4]
 8001ec6:	685b      	ldr	r3, [r3, #4]
 8001ec8:	2b02      	cmp	r3, #2
 8001eca:	d112      	bne.n	8001ef2 <HAL_RCC_ClockConfig+0x256>
      {
        while (__HAL_RCC_GET_SYSCLK_SOURCE() != RCC_SYSCLKSOURCE_STATUS_HSE)
 8001ecc:	e00a      	b.n	8001ee4 <HAL_RCC_ClockConfig+0x248>
        {
          if ((HAL_GetTick() - tickstart) > CLOCKSWITCH_TIMEOUT_VALUE)
 8001ece:	f7fe fbab 	bl	8000628 <HAL_GetTick>
 8001ed2:	4602      	mov	r2, r0
 8001ed4:	693b      	ldr	r3, [r7, #16]
 8001ed6:	1ad3      	subs	r3, r2, r3
 8001ed8:	f241 3288 	movw	r2, #5000	@ 0x1388
 8001edc:	4293      	cmp	r3, r2
 8001ede:	d901      	bls.n	8001ee4 <HAL_RCC_ClockConfig+0x248>
          {
            return HAL_TIMEOUT;
 8001ee0:	2303      	movs	r3, #3
 8001ee2:	e0bf      	b.n	8002064 <HAL_RCC_ClockConfig+0x3c8>
        while (__HAL_RCC_GET_SYSCLK_SOURCE() != RCC_SYSCLKSOURCE_STATUS_HSE)
 8001ee4:	4b0f      	ldr	r3, [pc, #60]	@ (8001f24 <HAL_RCC_ClockConfig+0x288>)
 8001ee6:	69db      	ldr	r3, [r3, #28]
 8001ee8:	f003 030c 	and.w	r3, r3, #12
 8001eec:	2b08      	cmp	r3, #8
 8001eee:	d1ee      	bne.n	8001ece <HAL_RCC_ClockConfig+0x232>
 8001ef0:	e02d      	b.n	8001f4e <HAL_RCC_ClockConfig+0x2b2>
          }
        }
      }
      else if (pRCC_ClkInitStruct->SYSCLKSource == RCC_SYSCLKSOURCE_MSI)
 8001ef2:	687b      	ldr	r3, [r7, #4]
 8001ef4:	685b      	ldr	r3, [r3, #4]
 8001ef6:	2b00      	cmp	r3, #0
 8001ef8:	d123      	bne.n	8001f42 <HAL_RCC_ClockConfig+0x2a6>
      {
        while (__HAL_RCC_GET_SYSCLK_SOURCE() != RCC_SYSCLKSOURCE_STATUS_MSI)
 8001efa:	e00a      	b.n	8001f12 <HAL_RCC_ClockConfig+0x276>
        {
          if ((HAL_GetTick() - tickstart) > CLOCKSWITCH_TIMEOUT_VALUE)
 8001efc:	f7fe fb94 	bl	8000628 <HAL_GetTick>
 8001f00:	4602      	mov	r2, r0
 8001f02:	693b      	ldr	r3, [r7, #16]
 8001f04:	1ad3      	subs	r3, r2, r3
 8001f06:	f241 3288 	movw	r2, #5000	@ 0x1388
 8001f0a:	4293      	cmp	r3, r2
 8001f0c:	d901      	bls.n	8001f12 <HAL_RCC_ClockConfig+0x276>
          {
            return HAL_TIMEOUT;
 8001f0e:	2303      	movs	r3, #3
 8001f10:	e0a8      	b.n	8002064 <HAL_RCC_ClockConfig+0x3c8>
        while (__HAL_RCC_GET_SYSCLK_SOURCE() != RCC_SYSCLKSOURCE_STATUS_MSI)
 8001f12:	4b04      	ldr	r3, [pc, #16]	@ (8001f24 <HAL_RCC_ClockConfig+0x288>)
 8001f14:	69db      	ldr	r3, [r3, #28]
 8001f16:	f003 030c 	and.w	r3, r3, #12
 8001f1a:	2b00      	cmp	r3, #0
 8001f1c:	d1ee      	bne.n	8001efc <HAL_RCC_ClockConfig+0x260>
 8001f1e:	e016      	b.n	8001f4e <HAL_RCC_ClockConfig+0x2b2>
 8001f20:	40022000 	.word	0x40022000
 8001f24:	46020c00 	.word	0x46020c00
 8001f28:	46020800 	.word	0x46020800
      }
      else
      {
        while (__HAL_RCC_GET_SYSCLK_SOURCE() != RCC_SYSCLKSOURCE_STATUS_HSI)
        {
          if ((HAL_GetTick() - tickstart) > CLOCKSWITCH_TIMEOUT_VALUE)
 8001f2c:	f7fe fb7c 	bl	8000628 <HAL_GetTick>
 8001f30:	4602      	mov	r2, r0
 8001f32:	693b      	ldr	r3, [r7, #16]
 8001f34:	1ad3      	subs	r3, r2, r3
 8001f36:	f241 3288 	movw	r2, #5000	@ 0x1388
 8001f3a:	4293      	cmp	r3, r2
 8001f3c:	d901      	bls.n	8001f42 <HAL_RCC_ClockConfig+0x2a6>
          {
            return HAL_TIMEOUT;
 8001f3e:	2303      	movs	r3, #3
 8001f40:	e090      	b.n	8002064 <HAL_RCC_ClockConfig+0x3c8>
        while (__HAL_RCC_GET_SYSCLK_SOURCE() != RCC_SYSCLKSOURCE_STATUS_HSI)
 8001f42:	4b4a      	ldr	r3, [pc, #296]	@ (800206c <HAL_RCC_ClockConfig+0x3d0>)
 8001f44:	69db      	ldr	r3, [r3, #28]
 8001f46:	f003 030c 	and.w	r3, r3, #12
 8001f4a:	2b04      	cmp	r3, #4
 8001f4c:	d1ee      	bne.n	8001f2c <HAL_RCC_ClockConfig+0x290>
    }
  }

  /* Decreasing the BUS frequency divider */
  /*-------------------------- HCLK Configuration --------------------------*/
  if (((pRCC_ClkInitStruct->ClockType) & RCC_CLOCKTYPE_HCLK) == RCC_CLOCKTYPE_HCLK)
 8001f4e:	687b      	ldr	r3, [r7, #4]
 8001f50:	681b      	ldr	r3, [r3, #0]
 8001f52:	f003 0302 	and.w	r3, r3, #2
 8001f56:	2b00      	cmp	r3, #0
 8001f58:	d010      	beq.n	8001f7c <HAL_RCC_ClockConfig+0x2e0>
  {
    if ((pRCC_ClkInitStruct->AHBCLKDivider) < (RCC->CFGR2 & RCC_CFGR2_HPRE))
 8001f5a:	687b      	ldr	r3, [r7, #4]
 8001f5c:	689a      	ldr	r2, [r3, #8]
 8001f5e:	4b43      	ldr	r3, [pc, #268]	@ (800206c <HAL_RCC_ClockConfig+0x3d0>)
 8001f60:	6a1b      	ldr	r3, [r3, #32]
 8001f62:	f003 030f 	and.w	r3, r3, #15
 8001f66:	429a      	cmp	r2, r3
 8001f68:	d208      	bcs.n	8001f7c <HAL_RCC_ClockConfig+0x2e0>
    {
      assert_param(IS_RCC_HCLK(pRCC_ClkInitStruct->AHBCLKDivider));
      MODIFY_REG(RCC->CFGR2, RCC_CFGR2_HPRE, pRCC_ClkInitStruct->AHBCLKDivider);
 8001f6a:	4b40      	ldr	r3, [pc, #256]	@ (800206c <HAL_RCC_ClockConfig+0x3d0>)
 8001f6c:	6a1b      	ldr	r3, [r3, #32]
 8001f6e:	f023 020f 	bic.w	r2, r3, #15
 8001f72:	687b      	ldr	r3, [r7, #4]
 8001f74:	689b      	ldr	r3, [r3, #8]
 8001f76:	493d      	ldr	r1, [pc, #244]	@ (800206c <HAL_RCC_ClockConfig+0x3d0>)
 8001f78:	4313      	orrs	r3, r2
 8001f7a:	620b      	str	r3, [r1, #32]
    }
  }

  /* Decreasing the number of wait states because of lower CPU frequency */
  if (FLatency < __HAL_FLASH_GET_LATENCY())
 8001f7c:	4b3c      	ldr	r3, [pc, #240]	@ (8002070 <HAL_RCC_ClockConfig+0x3d4>)
 8001f7e:	681b      	ldr	r3, [r3, #0]
 8001f80:	f003 030f 	and.w	r3, r3, #15
 8001f84:	683a      	ldr	r2, [r7, #0]
 8001f86:	429a      	cmp	r2, r3
 8001f88:	d210      	bcs.n	8001fac <HAL_RCC_ClockConfig+0x310>
  {
    /* Program the new number of wait states to the LATENCY bits in the FLASH_ACR register */
    __HAL_FLASH_SET_LATENCY(FLatency);
 8001f8a:	4b39      	ldr	r3, [pc, #228]	@ (8002070 <HAL_RCC_ClockConfig+0x3d4>)
 8001f8c:	681b      	ldr	r3, [r3, #0]
 8001f8e:	f023 020f 	bic.w	r2, r3, #15
 8001f92:	4937      	ldr	r1, [pc, #220]	@ (8002070 <HAL_RCC_ClockConfig+0x3d4>)
 8001f94:	683b      	ldr	r3, [r7, #0]
 8001f96:	4313      	orrs	r3, r2
 8001f98:	600b      	str	r3, [r1, #0]

    /* Check that the new number of wait states is taken into account to access the Flash
    memory by reading the FLASH_ACR register */
    if (__HAL_FLASH_GET_LATENCY() != FLatency)
 8001f9a:	4b35      	ldr	r3, [pc, #212]	@ (8002070 <HAL_RCC_ClockConfig+0x3d4>)
 8001f9c:	681b      	ldr	r3, [r3, #0]
 8001f9e:	f003 030f 	and.w	r3, r3, #15
 8001fa2:	683a      	ldr	r2, [r7, #0]
 8001fa4:	429a      	cmp	r2, r3
 8001fa6:	d001      	beq.n	8001fac <HAL_RCC_ClockConfig+0x310>
    {
      return HAL_ERROR;
 8001fa8:	2301      	movs	r3, #1
 8001faa:	e05b      	b.n	8002064 <HAL_RCC_ClockConfig+0x3c8>
    }
  }

  /*-------------------------- PCLK1 Configuration ---------------------------*/
  if (((pRCC_ClkInitStruct->ClockType) & RCC_CLOCKTYPE_PCLK1) == RCC_CLOCKTYPE_PCLK1)
 8001fac:	687b      	ldr	r3, [r7, #4]
 8001fae:	681b      	ldr	r3, [r3, #0]
 8001fb0:	f003 0304 	and.w	r3, r3, #4
 8001fb4:	2b00      	cmp	r3, #0
 8001fb6:	d010      	beq.n	8001fda <HAL_RCC_ClockConfig+0x33e>
  {
    if ((pRCC_ClkInitStruct->APB1CLKDivider) < (RCC->CFGR2 & RCC_CFGR2_PPRE1))
 8001fb8:	687b      	ldr	r3, [r7, #4]
 8001fba:	68da      	ldr	r2, [r3, #12]
 8001fbc:	4b2b      	ldr	r3, [pc, #172]	@ (800206c <HAL_RCC_ClockConfig+0x3d0>)
 8001fbe:	6a1b      	ldr	r3, [r3, #32]
 8001fc0:	f003 0370 	and.w	r3, r3, #112	@ 0x70
 8001fc4:	429a      	cmp	r2, r3
 8001fc6:	d208      	bcs.n	8001fda <HAL_RCC_ClockConfig+0x33e>
    {
      assert_param(IS_RCC_PCLK(pRCC_ClkInitStruct->APB1CLKDivider));
      MODIFY_REG(RCC->CFGR2, RCC_CFGR2_PPRE1, pRCC_ClkInitStruct->APB1CLKDivider);
 8001fc8:	4b28      	ldr	r3, [pc, #160]	@ (800206c <HAL_RCC_ClockConfig+0x3d0>)
 8001fca:	6a1b      	ldr	r3, [r3, #32]
 8001fcc:	f023 0270 	bic.w	r2, r3, #112	@ 0x70
 8001fd0:	687b      	ldr	r3, [r7, #4]
 8001fd2:	68db      	ldr	r3, [r3, #12]
 8001fd4:	4925      	ldr	r1, [pc, #148]	@ (800206c <HAL_RCC_ClockConfig+0x3d0>)
 8001fd6:	4313      	orrs	r3, r2
 8001fd8:	620b      	str	r3, [r1, #32]
    }
  }

  /*-------------------------- PCLK2 Configuration ---------------------------*/
  if (((pRCC_ClkInitStruct->ClockType) & RCC_CLOCKTYPE_PCLK2) == RCC_CLOCKTYPE_PCLK2)
 8001fda:	687b      	ldr	r3, [r7, #4]
 8001fdc:	681b      	ldr	r3, [r3, #0]
 8001fde:	f003 0308 	and.w	r3, r3, #8
 8001fe2:	2b00      	cmp	r3, #0
 8001fe4:	d012      	beq.n	800200c <HAL_RCC_ClockConfig+0x370>
  {
    if ((pRCC_ClkInitStruct->APB2CLKDivider) < ((RCC->CFGR2 & RCC_CFGR2_PPRE2) >> 4))
 8001fe6:	687b      	ldr	r3, [r7, #4]
 8001fe8:	691a      	ldr	r2, [r3, #16]
 8001fea:	4b20      	ldr	r3, [pc, #128]	@ (800206c <HAL_RCC_ClockConfig+0x3d0>)
 8001fec:	6a1b      	ldr	r3, [r3, #32]
 8001fee:	091b      	lsrs	r3, r3, #4
 8001ff0:	f003 0370 	and.w	r3, r3, #112	@ 0x70
 8001ff4:	429a      	cmp	r2, r3
 8001ff6:	d209      	bcs.n	800200c <HAL_RCC_ClockConfig+0x370>
    {
      assert_param(IS_RCC_PCLK(pRCC_ClkInitStruct->APB2CLKDivider));
      MODIFY_REG(RCC->CFGR2, RCC_CFGR2_PPRE2, ((pRCC_ClkInitStruct->APB2CLKDivider) << 4));
 8001ff8:	4b1c      	ldr	r3, [pc, #112]	@ (800206c <HAL_RCC_ClockConfig+0x3d0>)
 8001ffa:	6a1b      	ldr	r3, [r3, #32]
 8001ffc:	f423 62e0 	bic.w	r2, r3, #1792	@ 0x700
 8002000:	687b      	ldr	r3, [r7, #4]
 8002002:	691b      	ldr	r3, [r3, #16]
 8002004:	011b      	lsls	r3, r3, #4
 8002006:	4919      	ldr	r1, [pc, #100]	@ (800206c <HAL_RCC_ClockConfig+0x3d0>)
 8002008:	4313      	orrs	r3, r2
 800200a:	620b      	str	r3, [r1, #32]
    }
  }

  /*-------------------------- PCLK3 Configuration ---------------------------*/
  if (((pRCC_ClkInitStruct->ClockType) & RCC_CLOCKTYPE_PCLK3) == RCC_CLOCKTYPE_PCLK3)
 800200c:	687b      	ldr	r3, [r7, #4]
 800200e:	681b      	ldr	r3, [r3, #0]
 8002010:	f003 0310 	and.w	r3, r3, #16
 8002014:	2b00      	cmp	r3, #0
 8002016:	d010      	beq.n	800203a <HAL_RCC_ClockConfig+0x39e>
  {
    if ((pRCC_ClkInitStruct->APB3CLKDivider) < (RCC->CFGR3 & RCC_CFGR3_PPRE3))
 8002018:	687b      	ldr	r3, [r7, #4]
 800201a:	695a      	ldr	r2, [r3, #20]
 800201c:	4b13      	ldr	r3, [pc, #76]	@ (800206c <HAL_RCC_ClockConfig+0x3d0>)
 800201e:	6a5b      	ldr	r3, [r3, #36]	@ 0x24
 8002020:	f003 0370 	and.w	r3, r3, #112	@ 0x70
 8002024:	429a      	cmp	r2, r3
 8002026:	d208      	bcs.n	800203a <HAL_RCC_ClockConfig+0x39e>
    {
      assert_param(IS_RCC_PCLK(pRCC_ClkInitStruct->APB3CLKDivider));
      MODIFY_REG(RCC->CFGR3, RCC_CFGR3_PPRE3, (pRCC_ClkInitStruct->APB3CLKDivider));
 8002028:	4b10      	ldr	r3, [pc, #64]	@ (800206c <HAL_RCC_ClockConfig+0x3d0>)
 800202a:	6a5b      	ldr	r3, [r3, #36]	@ 0x24
 800202c:	f023 0270 	bic.w	r2, r3, #112	@ 0x70
 8002030:	687b      	ldr	r3, [r7, #4]
 8002032:	695b      	ldr	r3, [r3, #20]
 8002034:	490d      	ldr	r1, [pc, #52]	@ (800206c <HAL_RCC_ClockConfig+0x3d0>)
 8002036:	4313      	orrs	r3, r2
 8002038:	624b      	str	r3, [r1, #36]	@ 0x24
    }
  }

  /* Update the SystemCoreClock global variable */
  SystemCoreClock = HAL_RCC_GetSysClockFreq() >> AHBPrescTable[(RCC->CFGR2 & RCC_CFGR2_HPRE) >> RCC_CFGR2_HPRE_Pos];
 800203a:	f000 f821 	bl	8002080 <HAL_RCC_GetSysClockFreq>
 800203e:	4602      	mov	r2, r0
 8002040:	4b0a      	ldr	r3, [pc, #40]	@ (800206c <HAL_RCC_ClockConfig+0x3d0>)
 8002042:	6a1b      	ldr	r3, [r3, #32]
 8002044:	f003 030f 	and.w	r3, r3, #15
 8002048:	490a      	ldr	r1, [pc, #40]	@ (8002074 <HAL_RCC_ClockConfig+0x3d8>)
 800204a:	5ccb      	ldrb	r3, [r1, r3]
 800204c:	fa22 f303 	lsr.w	r3, r2, r3
 8002050:	4a09      	ldr	r2, [pc, #36]	@ (8002078 <HAL_RCC_ClockConfig+0x3dc>)
 8002052:	6013      	str	r3, [r2, #0]

  /* Configure the source of time base considering new system clocks settings*/
  status = HAL_InitTick(uwTickPrio);
 8002054:	4b09      	ldr	r3, [pc, #36]	@ (800207c <HAL_RCC_ClockConfig+0x3e0>)
 8002056:	681b      	ldr	r3, [r3, #0]
 8002058:	4618      	mov	r0, r3
 800205a:	f7fe fa5b 	bl	8000514 <HAL_InitTick>
 800205e:	4603      	mov	r3, r0
 8002060:	73fb      	strb	r3, [r7, #15]

  return status;
 8002062:	7bfb      	ldrb	r3, [r7, #15]
}
 8002064:	4618      	mov	r0, r3
 8002066:	3718      	adds	r7, #24
 8002068:	46bd      	mov	sp, r7
 800206a:	bd80      	pop	{r7, pc}
 800206c:	46020c00 	.word	0x46020c00
 8002070:	40022000 	.word	0x40022000
 8002074:	08003b10 	.word	0x08003b10
 8002078:	20000008 	.word	0x20000008
 800207c:	20000000 	.word	0x20000000

08002080 <HAL_RCC_GetSysClockFreq>:
  * @note   Each time SYSCLK changes, this function must be called to update the
  *         right SYSCLK value. Otherwise, any configuration based on this function will be incorrect.
  * @retval SYSCLK frequency
  */
uint32_t HAL_RCC_GetSysClockFreq(void)
{
 8002080:	b480      	push	{r7}
 8002082:	b08b      	sub	sp, #44	@ 0x2c
 8002084:	af00      	add	r7, sp, #0
  uint32_t msirange = 0U;
 8002086:	2300      	movs	r3, #0
 8002088:	627b      	str	r3, [r7, #36]	@ 0x24
  uint32_t pllsource;
  uint32_t pllr;
  uint32_t pllm;
  uint32_t pllfracen;
  uint32_t sysclockfreq = 0U;
 800208a:	2300      	movs	r3, #0
 800208c:	623b      	str	r3, [r7, #32]
  uint32_t sysclk_source;
  uint32_t pll_oscsource;
  float_t fracn1;
  float_t pllvco;

  sysclk_source = __HAL_RCC_GET_SYSCLK_SOURCE();
 800208e:	4b78      	ldr	r3, [pc, #480]	@ (8002270 <HAL_RCC_GetSysClockFreq+0x1f0>)
 8002090:	69db      	ldr	r3, [r3, #28]
 8002092:	f003 030c 	and.w	r3, r3, #12
 8002096:	61bb      	str	r3, [r7, #24]
  pll_oscsource = __HAL_RCC_GET_PLL_OSCSOURCE();
 8002098:	4b75      	ldr	r3, [pc, #468]	@ (8002270 <HAL_RCC_GetSysClockFreq+0x1f0>)
 800209a:	6a9b      	ldr	r3, [r3, #40]	@ 0x28
 800209c:	f003 0303 	and.w	r3, r3, #3
 80020a0:	617b      	str	r3, [r7, #20]

  if ((sysclk_source == RCC_SYSCLKSOURCE_STATUS_MSI) ||
 80020a2:	69bb      	ldr	r3, [r7, #24]
 80020a4:	2b00      	cmp	r3, #0
 80020a6:	d005      	beq.n	80020b4 <HAL_RCC_GetSysClockFreq+0x34>
 80020a8:	69bb      	ldr	r3, [r7, #24]
 80020aa:	2b0c      	cmp	r3, #12
 80020ac:	d121      	bne.n	80020f2 <HAL_RCC_GetSysClockFreq+0x72>
      ((sysclk_source == RCC_SYSCLKSOURCE_STATUS_PLLCLK) && (pll_oscsource == RCC_PLLSOURCE_MSI)))
 80020ae:	697b      	ldr	r3, [r7, #20]
 80020b0:	2b01      	cmp	r3, #1
 80020b2:	d11e      	bne.n	80020f2 <HAL_RCC_GetSysClockFreq+0x72>
  {
    /* MSI or PLL with MSI source used as system clock source */

    /* Get SYSCLK source */
    if (READ_BIT(RCC->ICSCR1, RCC_ICSCR1_MSIRGSEL) == 0U)
 80020b4:	4b6e      	ldr	r3, [pc, #440]	@ (8002270 <HAL_RCC_GetSysClockFreq+0x1f0>)
 80020b6:	689b      	ldr	r3, [r3, #8]
 80020b8:	f403 0300 	and.w	r3, r3, #8388608	@ 0x800000
 80020bc:	2b00      	cmp	r3, #0
 80020be:	d107      	bne.n	80020d0 <HAL_RCC_GetSysClockFreq+0x50>
    {
      /* MSISRANGE from RCC_CSR applies */
      msirange = (RCC->CSR & RCC_CSR_MSISSRANGE) >> RCC_CSR_MSISSRANGE_Pos;
 80020c0:	4b6b      	ldr	r3, [pc, #428]	@ (8002270 <HAL_RCC_GetSysClockFreq+0x1f0>)
 80020c2:	f8d3 30f4 	ldr.w	r3, [r3, #244]	@ 0xf4
 80020c6:	0b1b      	lsrs	r3, r3, #12
 80020c8:	f003 030f 	and.w	r3, r3, #15
 80020cc:	627b      	str	r3, [r7, #36]	@ 0x24
 80020ce:	e005      	b.n	80020dc <HAL_RCC_GetSysClockFreq+0x5c>
    }
    else
    {
      /* MSIRANGE from RCC_CR applies */
      msirange = (RCC->ICSCR1 & RCC_ICSCR1_MSISRANGE) >> RCC_ICSCR1_MSISRANGE_Pos;
 80020d0:	4b67      	ldr	r3, [pc, #412]	@ (8002270 <HAL_RCC_GetSysClockFreq+0x1f0>)
 80020d2:	689b      	ldr	r3, [r3, #8]
 80020d4:	0f1b      	lsrs	r3, r3, #28
 80020d6:	f003 030f 	and.w	r3, r3, #15
 80020da:	627b      	str	r3, [r7, #36]	@ 0x24
    }
    /*MSI frequency range in HZ*/
    msirange = MSIRangeTable[msirange];
 80020dc:	4a65      	ldr	r2, [pc, #404]	@ (8002274 <HAL_RCC_GetSysClockFreq+0x1f4>)
 80020de:	6a7b      	ldr	r3, [r7, #36]	@ 0x24
 80020e0:	f852 3023 	ldr.w	r3, [r2, r3, lsl #2]
 80020e4:	627b      	str	r3, [r7, #36]	@ 0x24

    if (sysclk_source == RCC_SYSCLKSOURCE_STATUS_MSI)
 80020e6:	69bb      	ldr	r3, [r7, #24]
 80020e8:	2b00      	cmp	r3, #0
 80020ea:	d110      	bne.n	800210e <HAL_RCC_GetSysClockFreq+0x8e>
    {
      /* MSI used as system clock source */
      sysclockfreq = msirange;
 80020ec:	6a7b      	ldr	r3, [r7, #36]	@ 0x24
 80020ee:	623b      	str	r3, [r7, #32]
    if (sysclk_source == RCC_SYSCLKSOURCE_STATUS_MSI)
 80020f0:	e00d      	b.n	800210e <HAL_RCC_GetSysClockFreq+0x8e>
    }
  }
  else if (__HAL_RCC_GET_SYSCLK_SOURCE() == RCC_SYSCLKSOURCE_STATUS_HSI)
 80020f2:	4b5f      	ldr	r3, [pc, #380]	@ (8002270 <HAL_RCC_GetSysClockFreq+0x1f0>)
 80020f4:	69db      	ldr	r3, [r3, #28]
 80020f6:	f003 030c 	and.w	r3, r3, #12
 80020fa:	2b04      	cmp	r3, #4
 80020fc:	d102      	bne.n	8002104 <HAL_RCC_GetSysClockFreq+0x84>
  {
    /* HSI used as system clock source */
    sysclockfreq = HSI_VALUE;
 80020fe:	4b5e      	ldr	r3, [pc, #376]	@ (8002278 <HAL_RCC_GetSysClockFreq+0x1f8>)
 8002100:	623b      	str	r3, [r7, #32]
 8002102:	e004      	b.n	800210e <HAL_RCC_GetSysClockFreq+0x8e>
  }
  else if (sysclk_source == RCC_SYSCLKSOURCE_STATUS_HSE)
 8002104:	69bb      	ldr	r3, [r7, #24]
 8002106:	2b08      	cmp	r3, #8
 8002108:	d101      	bne.n	800210e <HAL_RCC_GetSysClockFreq+0x8e>
  {
    /* HSE used as system clock source */
    sysclockfreq = HSE_VALUE;
 800210a:	4b5c      	ldr	r3, [pc, #368]	@ (800227c <HAL_RCC_GetSysClockFreq+0x1fc>)
 800210c:	623b      	str	r3, [r7, #32]
  else
  {
    /* Nothing to do */
  }

  if (sysclk_source == RCC_SYSCLKSOURCE_STATUS_PLLCLK)
 800210e:	69bb      	ldr	r3, [r7, #24]
 8002110:	2b0c      	cmp	r3, #12
 8002112:	f040 80a5 	bne.w	8002260 <HAL_RCC_GetSysClockFreq+0x1e0>
  {
    /* PLL used as system clock  source
       PLL_VCO = (HSE_VALUE or HSI_VALUE or MSI_VALUE/ PLLM) * PLLN
       SYSCLK = PLL_VCO / PLLR
    */
    pllsource = (RCC->PLL1CFGR & RCC_PLL1CFGR_PLL1SRC);
 8002116:	4b56      	ldr	r3, [pc, #344]	@ (8002270 <HAL_RCC_GetSysClockFreq+0x1f0>)
 8002118:	6a9b      	ldr	r3, [r3, #40]	@ 0x28
 800211a:	f003 0303 	and.w	r3, r3, #3
 800211e:	613b      	str	r3, [r7, #16]
    pllm = ((RCC->PLL1CFGR & RCC_PLL1CFGR_PLL1M) >> RCC_PLL1CFGR_PLL1M_Pos) + 1U;
 8002120:	4b53      	ldr	r3, [pc, #332]	@ (8002270 <HAL_RCC_GetSysClockFreq+0x1f0>)
 8002122:	6a9b      	ldr	r3, [r3, #40]	@ 0x28
 8002124:	0a1b      	lsrs	r3, r3, #8
 8002126:	f003 030f 	and.w	r3, r3, #15
 800212a:	3301      	adds	r3, #1
 800212c:	60fb      	str	r3, [r7, #12]
    pllfracen = ((RCC->PLL1CFGR & RCC_PLL1CFGR_PLL1FRACEN) >> RCC_PLL1CFGR_PLL1FRACEN_Pos);
 800212e:	4b50      	ldr	r3, [pc, #320]	@ (8002270 <HAL_RCC_GetSysClockFreq+0x1f0>)
 8002130:	6a9b      	ldr	r3, [r3, #40]	@ 0x28
 8002132:	091b      	lsrs	r3, r3, #4
 8002134:	f003 0301 	and.w	r3, r3, #1
 8002138:	60bb      	str	r3, [r7, #8]
    fracn1 = (float_t)(uint32_t)(pllfracen * ((RCC->PLL1FRACR & RCC_PLL1FRACR_PLL1FRACN) >> \
 800213a:	4b4d      	ldr	r3, [pc, #308]	@ (8002270 <HAL_RCC_GetSysClockFreq+0x1f0>)
 800213c:	6b9b      	ldr	r3, [r3, #56]	@ 0x38
 800213e:	08db      	lsrs	r3, r3, #3
 8002140:	f3c3 030c 	ubfx	r3, r3, #0, #13
 8002144:	68ba      	ldr	r2, [r7, #8]
 8002146:	fb02 f303 	mul.w	r3, r2, r3
 800214a:	ee07 3a90 	vmov	s15, r3
 800214e:	eef8 7a67 	vcvt.f32.u32	s15, s15
 8002152:	edc7 7a01 	vstr	s15, [r7, #4]
                                              RCC_PLL1FRACR_PLL1FRACN_Pos));

    switch (pllsource)
 8002156:	693b      	ldr	r3, [r7, #16]
 8002158:	2b02      	cmp	r3, #2
 800215a:	d003      	beq.n	8002164 <HAL_RCC_GetSysClockFreq+0xe4>
 800215c:	693b      	ldr	r3, [r7, #16]
 800215e:	2b03      	cmp	r3, #3
 8002160:	d022      	beq.n	80021a8 <HAL_RCC_GetSysClockFreq+0x128>
 8002162:	e043      	b.n	80021ec <HAL_RCC_GetSysClockFreq+0x16c>
    {
      case RCC_PLLSOURCE_HSI:  /* HSI used as PLL clock source */
        pllvco = ((float_t)HSI_VALUE / (float_t)pllm) * ((float_t)(uint32_t)(RCC->PLL1DIVR & RCC_PLL1DIVR_PLL1N) + \
 8002164:	68fb      	ldr	r3, [r7, #12]
 8002166:	ee07 3a90 	vmov	s15, r3
 800216a:	eef8 7a67 	vcvt.f32.u32	s15, s15
 800216e:	eddf 6a44 	vldr	s13, [pc, #272]	@ 8002280 <HAL_RCC_GetSysClockFreq+0x200>
 8002172:	ee86 7aa7 	vdiv.f32	s14, s13, s15
 8002176:	4b3e      	ldr	r3, [pc, #248]	@ (8002270 <HAL_RCC_GetSysClockFreq+0x1f0>)
 8002178:	6b5b      	ldr	r3, [r3, #52]	@ 0x34
 800217a:	f3c3 0308 	ubfx	r3, r3, #0, #9
 800217e:	ee07 3a90 	vmov	s15, r3
 8002182:	eef8 6a67 	vcvt.f32.u32	s13, s15
                                                         (fracn1 / (float_t)0x2000) + (float_t)1U);
 8002186:	ed97 6a01 	vldr	s12, [r7, #4]
 800218a:	eddf 5a3e 	vldr	s11, [pc, #248]	@ 8002284 <HAL_RCC_GetSysClockFreq+0x204>
 800218e:	eec6 7a25 	vdiv.f32	s15, s12, s11
        pllvco = ((float_t)HSI_VALUE / (float_t)pllm) * ((float_t)(uint32_t)(RCC->PLL1DIVR & RCC_PLL1DIVR_PLL1N) + \
 8002192:	ee76 7aa7 	vadd.f32	s15, s13, s15
                                                         (fracn1 / (float_t)0x2000) + (float_t)1U);
 8002196:	eef7 6a00 	vmov.f32	s13, #112	@ 0x3f800000  1.0
 800219a:	ee77 7aa6 	vadd.f32	s15, s15, s13
        pllvco = ((float_t)HSI_VALUE / (float_t)pllm) * ((float_t)(uint32_t)(RCC->PLL1DIVR & RCC_PLL1DIVR_PLL1N) + \
 800219e:	ee67 7a27 	vmul.f32	s15, s14, s15
 80021a2:	edc7 7a07 	vstr	s15, [r7, #28]
        break;
 80021a6:	e046      	b.n	8002236 <HAL_RCC_GetSysClockFreq+0x1b6>

      case RCC_PLLSOURCE_HSE:  /* HSE used as PLL clock source */
        pllvco = ((float_t)HSE_VALUE / (float_t)pllm) * ((float_t)(uint32_t)(RCC->PLL1DIVR & RCC_PLL1DIVR_PLL1N) + \
 80021a8:	68fb      	ldr	r3, [r7, #12]
 80021aa:	ee07 3a90 	vmov	s15, r3
 80021ae:	eef8 7a67 	vcvt.f32.u32	s15, s15
 80021b2:	eddf 6a35 	vldr	s13, [pc, #212]	@ 8002288 <HAL_RCC_GetSysClockFreq+0x208>
 80021b6:	ee86 7aa7 	vdiv.f32	s14, s13, s15
 80021ba:	4b2d      	ldr	r3, [pc, #180]	@ (8002270 <HAL_RCC_GetSysClockFreq+0x1f0>)
 80021bc:	6b5b      	ldr	r3, [r3, #52]	@ 0x34
 80021be:	f3c3 0308 	ubfx	r3, r3, #0, #9
 80021c2:	ee07 3a90 	vmov	s15, r3
 80021c6:	eef8 6a67 	vcvt.f32.u32	s13, s15
                                                         (fracn1 / (float_t)0x2000) + (float_t)1U);
 80021ca:	ed97 6a01 	vldr	s12, [r7, #4]
 80021ce:	eddf 5a2d 	vldr	s11, [pc, #180]	@ 8002284 <HAL_RCC_GetSysClockFreq+0x204>
 80021d2:	eec6 7a25 	vdiv.f32	s15, s12, s11
        pllvco = ((float_t)HSE_VALUE / (float_t)pllm) * ((float_t)(uint32_t)(RCC->PLL1DIVR & RCC_PLL1DIVR_PLL1N) + \
 80021d6:	ee76 7aa7 	vadd.f32	s15, s13, s15
                                                         (fracn1 / (float_t)0x2000) + (float_t)1U);
 80021da:	eef7 6a00 	vmov.f32	s13, #112	@ 0x3f800000  1.0
 80021de:	ee77 7aa6 	vadd.f32	s15, s15, s13
        pllvco = ((float_t)HSE_VALUE / (float_t)pllm) * ((float_t)(uint32_t)(RCC->PLL1DIVR & RCC_PLL1DIVR_PLL1N) + \
 80021e2:	ee67 7a27 	vmul.f32	s15, s14, s15
 80021e6:	edc7 7a07 	vstr	s15, [r7, #28]
        break;
 80021ea:	e024      	b.n	8002236 <HAL_RCC_GetSysClockFreq+0x1b6>

      case RCC_PLLSOURCE_MSI:  /* MSI used as PLL clock source */
      default:
        pllvco = ((float_t) msirange / (float_t)pllm) * ((float_t)(uint32_t)(RCC->PLL1DIVR & RCC_PLL1DIVR_PLL1N) + \
 80021ec:	6a7b      	ldr	r3, [r7, #36]	@ 0x24
 80021ee:	ee07 3a90 	vmov	s15, r3
 80021f2:	eef8 6a67 	vcvt.f32.u32	s13, s15
 80021f6:	68fb      	ldr	r3, [r7, #12]
 80021f8:	ee07 3a90 	vmov	s15, r3
 80021fc:	eef8 7a67 	vcvt.f32.u32	s15, s15
 8002200:	ee86 7aa7 	vdiv.f32	s14, s13, s15
 8002204:	4b1a      	ldr	r3, [pc, #104]	@ (8002270 <HAL_RCC_GetSysClockFreq+0x1f0>)
 8002206:	6b5b      	ldr	r3, [r3, #52]	@ 0x34
 8002208:	f3c3 0308 	ubfx	r3, r3, #0, #9
 800220c:	ee07 3a90 	vmov	s15, r3
 8002210:	eef8 6a67 	vcvt.f32.u32	s13, s15
                                                         (fracn1 / (float_t)0x2000) + (float_t)1U);
 8002214:	ed97 6a01 	vldr	s12, [r7, #4]
 8002218:	eddf 5a1a 	vldr	s11, [pc, #104]	@ 8002284 <HAL_RCC_GetSysClockFreq+0x204>
 800221c:	eec6 7a25 	vdiv.f32	s15, s12, s11
        pllvco = ((float_t) msirange / (float_t)pllm) * ((float_t)(uint32_t)(RCC->PLL1DIVR & RCC_PLL1DIVR_PLL1N) + \
 8002220:	ee76 7aa7 	vadd.f32	s15, s13, s15
                                                         (fracn1 / (float_t)0x2000) + (float_t)1U);
 8002224:	eef7 6a00 	vmov.f32	s13, #112	@ 0x3f800000  1.0
 8002228:	ee77 7aa6 	vadd.f32	s15, s15, s13
        pllvco = ((float_t) msirange / (float_t)pllm) * ((float_t)(uint32_t)(RCC->PLL1DIVR & RCC_PLL1DIVR_PLL1N) + \
 800222c:	ee67 7a27 	vmul.f32	s15, s14, s15
 8002230:	edc7 7a07 	vstr	s15, [r7, #28]
        break;
 8002234:	bf00      	nop
    }

    pllr = (((RCC->PLL1DIVR & RCC_PLL1DIVR_PLL1R) >> RCC_PLL1DIVR_PLL1R_Pos) + 1U);
 8002236:	4b0e      	ldr	r3, [pc, #56]	@ (8002270 <HAL_RCC_GetSysClockFreq+0x1f0>)
 8002238:	6b5b      	ldr	r3, [r3, #52]	@ 0x34
 800223a:	0e1b      	lsrs	r3, r3, #24
 800223c:	f003 037f 	and.w	r3, r3, #127	@ 0x7f
 8002240:	3301      	adds	r3, #1
 8002242:	603b      	str	r3, [r7, #0]
    sysclockfreq = (uint32_t)(float_t)((float_t)pllvco / (float_t)pllr);
 8002244:	683b      	ldr	r3, [r7, #0]
 8002246:	ee07 3a90 	vmov	s15, r3
 800224a:	eeb8 7a67 	vcvt.f32.u32	s14, s15
 800224e:	edd7 6a07 	vldr	s13, [r7, #28]
 8002252:	eec6 7a87 	vdiv.f32	s15, s13, s14
 8002256:	eefc 7ae7 	vcvt.u32.f32	s15, s15
 800225a:	ee17 3a90 	vmov	r3, s15
 800225e:	623b      	str	r3, [r7, #32]
  }

  return sysclockfreq;
 8002260:	6a3b      	ldr	r3, [r7, #32]
}
 8002262:	4618      	mov	r0, r3
 8002264:	372c      	adds	r7, #44	@ 0x2c
 8002266:	46bd      	mov	sp, r7
 8002268:	f85d 7b04 	ldr.w	r7, [sp], #4
 800226c:	4770      	bx	lr
 800226e:	bf00      	nop
 8002270:	46020c00 	.word	0x46020c00
 8002274:	08003b20 	.word	0x08003b20
 8002278:	00f42400 	.word	0x00f42400
 800227c:	017d7840 	.word	0x017d7840
 8002280:	4b742400 	.word	0x4b742400
 8002284:	46000000 	.word	0x46000000
 8002288:	4bbebc20 	.word	0x4bbebc20

0800228c <HAL_RCC_GetHCLKFreq>:
  *
  * @note   The SystemCoreClock CMSIS variable is used to store System Clock Frequency.
  * @retval HCLK frequency in Hz
  */
uint32_t HAL_RCC_GetHCLKFreq(void)
{
 800228c:	b580      	push	{r7, lr}
 800228e:	af00      	add	r7, sp, #0
  SystemCoreClock = HAL_RCC_GetSysClockFreq() >> AHBPrescTable[(RCC->CFGR2 & RCC_CFGR2_HPRE) >> RCC_CFGR2_HPRE_Pos];
 8002290:	f7ff fef6 	bl	8002080 <HAL_RCC_GetSysClockFreq>
 8002294:	4602      	mov	r2, r0
 8002296:	4b07      	ldr	r3, [pc, #28]	@ (80022b4 <HAL_RCC_GetHCLKFreq+0x28>)
 8002298:	6a1b      	ldr	r3, [r3, #32]
 800229a:	f003 030f 	and.w	r3, r3, #15
 800229e:	4906      	ldr	r1, [pc, #24]	@ (80022b8 <HAL_RCC_GetHCLKFreq+0x2c>)
 80022a0:	5ccb      	ldrb	r3, [r1, r3]
 80022a2:	fa22 f303 	lsr.w	r3, r2, r3
 80022a6:	4a05      	ldr	r2, [pc, #20]	@ (80022bc <HAL_RCC_GetHCLKFreq+0x30>)
 80022a8:	6013      	str	r3, [r2, #0]
  return SystemCoreClock;
 80022aa:	4b04      	ldr	r3, [pc, #16]	@ (80022bc <HAL_RCC_GetHCLKFreq+0x30>)
 80022ac:	681b      	ldr	r3, [r3, #0]
}
 80022ae:	4618      	mov	r0, r3
 80022b0:	bd80      	pop	{r7, pc}
 80022b2:	bf00      	nop
 80022b4:	46020c00 	.word	0x46020c00
 80022b8:	08003b10 	.word	0x08003b10
 80022bc:	20000008 	.word	0x20000008

080022c0 <RCC_SetFlashLatencyFromMSIRange>:
            voltage range.
  * @param  msirange  MSI range value from RCC_MSIRANGE_0 to RCC_MSIRANGE_15
  * @retval HAL status
  */
static HAL_StatusTypeDef RCC_SetFlashLatencyFromMSIRange(uint32_t msirange)
{
 80022c0:	b580      	push	{r7, lr}
 80022c2:	b086      	sub	sp, #24
 80022c4:	af00      	add	r7, sp, #0
 80022c6:	6078      	str	r0, [r7, #4]
  uint32_t vos;
  uint32_t latency;  /* default value 0WS */

  if (__HAL_RCC_PWR_IS_CLK_ENABLED())
 80022c8:	4b3e      	ldr	r3, [pc, #248]	@ (80023c4 <RCC_SetFlashLatencyFromMSIRange+0x104>)
 80022ca:	f8d3 3094 	ldr.w	r3, [r3, #148]	@ 0x94
 80022ce:	f003 0304 	and.w	r3, r3, #4
 80022d2:	2b00      	cmp	r3, #0
 80022d4:	d003      	beq.n	80022de <RCC_SetFlashLatencyFromMSIRange+0x1e>
  {
    vos = HAL_PWREx_GetVoltageRange();
 80022d6:	f7fe fdab 	bl	8000e30 <HAL_PWREx_GetVoltageRange>
 80022da:	6178      	str	r0, [r7, #20]
 80022dc:	e019      	b.n	8002312 <RCC_SetFlashLatencyFromMSIRange+0x52>
  }
  else
  {
    __HAL_RCC_PWR_CLK_ENABLE();
 80022de:	4b39      	ldr	r3, [pc, #228]	@ (80023c4 <RCC_SetFlashLatencyFromMSIRange+0x104>)
 80022e0:	f8d3 3094 	ldr.w	r3, [r3, #148]	@ 0x94
 80022e4:	4a37      	ldr	r2, [pc, #220]	@ (80023c4 <RCC_SetFlashLatencyFromMSIRange+0x104>)
 80022e6:	f043 0304 	orr.w	r3, r3, #4
 80022ea:	f8c2 3094 	str.w	r3, [r2, #148]	@ 0x94
 80022ee:	4b35      	ldr	r3, [pc, #212]	@ (80023c4 <RCC_SetFlashLatencyFromMSIRange+0x104>)
 80022f0:	f8d3 3094 	ldr.w	r3, [r3, #148]	@ 0x94
 80022f4:	f003 0304 	and.w	r3, r3, #4
 80022f8:	60fb      	str	r3, [r7, #12]
 80022fa:	68fb      	ldr	r3, [r7, #12]
    vos = HAL_PWREx_GetVoltageRange();
 80022fc:	f7fe fd98 	bl	8000e30 <HAL_PWREx_GetVoltageRange>
 8002300:	6178      	str	r0, [r7, #20]
    __HAL_RCC_PWR_CLK_DISABLE();
 8002302:	4b30      	ldr	r3, [pc, #192]	@ (80023c4 <RCC_SetFlashLatencyFromMSIRange+0x104>)
 8002304:	f8d3 3094 	ldr.w	r3, [r3, #148]	@ 0x94
 8002308:	4a2e      	ldr	r2, [pc, #184]	@ (80023c4 <RCC_SetFlashLatencyFromMSIRange+0x104>)
 800230a:	f023 0304 	bic.w	r3, r3, #4
 800230e:	f8c2 3094 	str.w	r3, [r2, #148]	@ 0x94
  }

  if ((vos == PWR_REGULATOR_VOLTAGE_SCALE1) || (vos == PWR_REGULATOR_VOLTAGE_SCALE2))
 8002312:	697b      	ldr	r3, [r7, #20]
 8002314:	f5b3 3f40 	cmp.w	r3, #196608	@ 0x30000
 8002318:	d003      	beq.n	8002322 <RCC_SetFlashLatencyFromMSIRange+0x62>
 800231a:	697b      	ldr	r3, [r7, #20]
 800231c:	f5b3 3f00 	cmp.w	r3, #131072	@ 0x20000
 8002320:	d109      	bne.n	8002336 <RCC_SetFlashLatencyFromMSIRange+0x76>
  {

    if (msirange < RCC_MSIRANGE_1)
 8002322:	687b      	ldr	r3, [r7, #4]
 8002324:	f1b3 5f80 	cmp.w	r3, #268435456	@ 0x10000000
 8002328:	d202      	bcs.n	8002330 <RCC_SetFlashLatencyFromMSIRange+0x70>
    {
      /* MSI = 48Mhz */
      latency = FLASH_LATENCY_1; /* 1WS */
 800232a:	2301      	movs	r3, #1
 800232c:	613b      	str	r3, [r7, #16]
    if (msirange < RCC_MSIRANGE_1)
 800232e:	e033      	b.n	8002398 <RCC_SetFlashLatencyFromMSIRange+0xd8>
    }
    else
    {
      /*  MSI < 48Mhz */
      latency = FLASH_LATENCY_0; /* 0WS */
 8002330:	2300      	movs	r3, #0
 8002332:	613b      	str	r3, [r7, #16]
    if (msirange < RCC_MSIRANGE_1)
 8002334:	e030      	b.n	8002398 <RCC_SetFlashLatencyFromMSIRange+0xd8>
    }
  }
  else
  {
    if (msirange < RCC_MSIRANGE_1)
 8002336:	687b      	ldr	r3, [r7, #4]
 8002338:	f1b3 5f80 	cmp.w	r3, #268435456	@ 0x10000000
 800233c:	d208      	bcs.n	8002350 <RCC_SetFlashLatencyFromMSIRange+0x90>
    {
      /* MSI = 48Mhz */
      if (vos == PWR_REGULATOR_VOLTAGE_SCALE3)
 800233e:	697b      	ldr	r3, [r7, #20]
 8002340:	f5b3 3f80 	cmp.w	r3, #65536	@ 0x10000
 8002344:	d102      	bne.n	800234c <RCC_SetFlashLatencyFromMSIRange+0x8c>
      {
        latency = FLASH_LATENCY_3; /* 3WS */
 8002346:	2303      	movs	r3, #3
 8002348:	613b      	str	r3, [r7, #16]
 800234a:	e025      	b.n	8002398 <RCC_SetFlashLatencyFromMSIRange+0xd8>
      }
      else
      {
        return HAL_ERROR;
 800234c:	2301      	movs	r3, #1
 800234e:	e035      	b.n	80023bc <RCC_SetFlashLatencyFromMSIRange+0xfc>
      }
    }
    else
    {
      if (msirange > RCC_MSIRANGE_2)
 8002350:	687b      	ldr	r3, [r7, #4]
 8002352:	f1b3 5f00 	cmp.w	r3, #536870912	@ 0x20000000
 8002356:	d90f      	bls.n	8002378 <RCC_SetFlashLatencyFromMSIRange+0xb8>
      {
        if (vos == PWR_REGULATOR_VOLTAGE_SCALE4)
 8002358:	697b      	ldr	r3, [r7, #20]
 800235a:	2b00      	cmp	r3, #0
 800235c:	d109      	bne.n	8002372 <RCC_SetFlashLatencyFromMSIRange+0xb2>
        {
          if (msirange > RCC_MSIRANGE_3)
 800235e:	687b      	ldr	r3, [r7, #4]
 8002360:	f1b3 5f40 	cmp.w	r3, #805306368	@ 0x30000000
 8002364:	d902      	bls.n	800236c <RCC_SetFlashLatencyFromMSIRange+0xac>
          {
            latency = FLASH_LATENCY_0; /* 1WS */
 8002366:	2300      	movs	r3, #0
 8002368:	613b      	str	r3, [r7, #16]
 800236a:	e015      	b.n	8002398 <RCC_SetFlashLatencyFromMSIRange+0xd8>
          }
          else
          {
            latency = FLASH_LATENCY_1; /* 0WS */
 800236c:	2301      	movs	r3, #1
 800236e:	613b      	str	r3, [r7, #16]
 8002370:	e012      	b.n	8002398 <RCC_SetFlashLatencyFromMSIRange+0xd8>
          }
        }
        else
        {
          latency = FLASH_LATENCY_0; /* 0WS */
 8002372:	2300      	movs	r3, #0
 8002374:	613b      	str	r3, [r7, #16]
 8002376:	e00f      	b.n	8002398 <RCC_SetFlashLatencyFromMSIRange+0xd8>
        }
      }
      else
      {
        if (msirange == RCC_MSIRANGE_1)
 8002378:	687b      	ldr	r3, [r7, #4]
 800237a:	f1b3 5f80 	cmp.w	r3, #268435456	@ 0x10000000
 800237e:	d109      	bne.n	8002394 <RCC_SetFlashLatencyFromMSIRange+0xd4>
        {
          if (vos == PWR_REGULATOR_VOLTAGE_SCALE3)
 8002380:	697b      	ldr	r3, [r7, #20]
 8002382:	f5b3 3f80 	cmp.w	r3, #65536	@ 0x10000
 8002386:	d102      	bne.n	800238e <RCC_SetFlashLatencyFromMSIRange+0xce>
          {
            latency = FLASH_LATENCY_1; /* 1WS */
 8002388:	2301      	movs	r3, #1
 800238a:	613b      	str	r3, [r7, #16]
 800238c:	e004      	b.n	8002398 <RCC_SetFlashLatencyFromMSIRange+0xd8>
          }
          else
          {
            latency = FLASH_LATENCY_2; /* 2WS */
 800238e:	2302      	movs	r3, #2
 8002390:	613b      	str	r3, [r7, #16]
 8002392:	e001      	b.n	8002398 <RCC_SetFlashLatencyFromMSIRange+0xd8>
          }
        }
        else
        {
          latency = FLASH_LATENCY_1; /* 1WS */
 8002394:	2301      	movs	r3, #1
 8002396:	613b      	str	r3, [r7, #16]
        }
      }
    }
  }

  __HAL_FLASH_SET_LATENCY(latency);
 8002398:	4b0b      	ldr	r3, [pc, #44]	@ (80023c8 <RCC_SetFlashLatencyFromMSIRange+0x108>)
 800239a:	681b      	ldr	r3, [r3, #0]
 800239c:	f023 020f 	bic.w	r2, r3, #15
 80023a0:	4909      	ldr	r1, [pc, #36]	@ (80023c8 <RCC_SetFlashLatencyFromMSIRange+0x108>)
 80023a2:	693b      	ldr	r3, [r7, #16]
 80023a4:	4313      	orrs	r3, r2
 80023a6:	600b      	str	r3, [r1, #0]

  /* Check that the new number of wait states is taken into account to access the Flash
  memory by reading the FLASH_ACR register */
  if ((FLASH->ACR & FLASH_ACR_LATENCY) != latency)
 80023a8:	4b07      	ldr	r3, [pc, #28]	@ (80023c8 <RCC_SetFlashLatencyFromMSIRange+0x108>)
 80023aa:	681b      	ldr	r3, [r3, #0]
 80023ac:	f003 030f 	and.w	r3, r3, #15
 80023b0:	693a      	ldr	r2, [r7, #16]
 80023b2:	429a      	cmp	r2, r3
 80023b4:	d001      	beq.n	80023ba <RCC_SetFlashLatencyFromMSIRange+0xfa>
  {
    return HAL_ERROR;
 80023b6:	2301      	movs	r3, #1
 80023b8:	e000      	b.n	80023bc <RCC_SetFlashLatencyFromMSIRange+0xfc>
  }

  return HAL_OK;
 80023ba:	2300      	movs	r3, #0
}
 80023bc:	4618      	mov	r0, r3
 80023be:	3718      	adds	r7, #24
 80023c0:	46bd      	mov	sp, r7
 80023c2:	bd80      	pop	{r7, pc}
 80023c4:	46020c00 	.word	0x46020c00
 80023c8:	40022000 	.word	0x40022000

080023cc <ITM_SendChar>:
           \li Is blocking when a debugger is connected, but the previous character sent has not been transmitted.
  \param [in]     ch  Character to transmit.
  \returns            Character to transmit.
 */
__STATIC_INLINE uint32_t ITM_SendChar (uint32_t ch)
{
 80023cc:	b480      	push	{r7}
 80023ce:	b083      	sub	sp, #12
 80023d0:	af00      	add	r7, sp, #0
 80023d2:	6078      	str	r0, [r7, #4]
  if (((ITM->TCR & ITM_TCR_ITMENA_Msk) != 0UL) &&      /* ITM enabled */
 80023d4:	f04f 4360 	mov.w	r3, #3758096384	@ 0xe0000000
 80023d8:	f8d3 3e80 	ldr.w	r3, [r3, #3712]	@ 0xe80
 80023dc:	f003 0301 	and.w	r3, r3, #1
 80023e0:	2b00      	cmp	r3, #0
 80023e2:	d013      	beq.n	800240c <ITM_SendChar+0x40>
      ((ITM->TER & 1UL               ) != 0UL)   )     /* ITM Port #0 enabled */
 80023e4:	f04f 4360 	mov.w	r3, #3758096384	@ 0xe0000000
 80023e8:	f8d3 3e00 	ldr.w	r3, [r3, #3584]	@ 0xe00
 80023ec:	f003 0301 	and.w	r3, r3, #1
  if (((ITM->TCR & ITM_TCR_ITMENA_Msk) != 0UL) &&      /* ITM enabled */
 80023f0:	2b00      	cmp	r3, #0
 80023f2:	d00b      	beq.n	800240c <ITM_SendChar+0x40>
  {
    while (ITM->PORT[0U].u32 == 0UL)
 80023f4:	e000      	b.n	80023f8 <ITM_SendChar+0x2c>
    {
      __NOP();
 80023f6:	bf00      	nop
    while (ITM->PORT[0U].u32 == 0UL)
 80023f8:	f04f 4360 	mov.w	r3, #3758096384	@ 0xe0000000
 80023fc:	681b      	ldr	r3, [r3, #0]
 80023fe:	2b00      	cmp	r3, #0
 8002400:	d0f9      	beq.n	80023f6 <ITM_SendChar+0x2a>
    }
    ITM->PORT[0U].u8 = (uint8_t)ch;
 8002402:	f04f 4360 	mov.w	r3, #3758096384	@ 0xe0000000
 8002406:	687a      	ldr	r2, [r7, #4]
 8002408:	b2d2      	uxtb	r2, r2
 800240a:	701a      	strb	r2, [r3, #0]
  }
  return (ch);
 800240c:	687b      	ldr	r3, [r7, #4]
}
 800240e:	4618      	mov	r0, r3
 8002410:	370c      	adds	r7, #12
 8002412:	46bd      	mov	sp, r7
 8002414:	f85d 7b04 	ldr.w	r7, [sp], #4
 8002418:	4770      	bx	lr

0800241a <_write>:
static void Boot_RunStartupPolicy(void);

#define BOOT_FORCE_INVALID_APP_FOR_TEST   0U

int _write(int file, char *ptr, int len)
{
 800241a:	b580      	push	{r7, lr}
 800241c:	b086      	sub	sp, #24
 800241e:	af00      	add	r7, sp, #0
 8002420:	60f8      	str	r0, [r7, #12]
 8002422:	60b9      	str	r1, [r7, #8]
 8002424:	607a      	str	r2, [r7, #4]
    int i;

    (void)file;

    for (i = 0; i < len; i++)
 8002426:	2300      	movs	r3, #0
 8002428:	617b      	str	r3, [r7, #20]
 800242a:	e009      	b.n	8002440 <_write+0x26>
    {
        ITM_SendChar(*ptr++);
 800242c:	68bb      	ldr	r3, [r7, #8]
 800242e:	1c5a      	adds	r2, r3, #1
 8002430:	60ba      	str	r2, [r7, #8]
 8002432:	781b      	ldrb	r3, [r3, #0]
 8002434:	4618      	mov	r0, r3
 8002436:	f7ff ffc9 	bl	80023cc <ITM_SendChar>
    for (i = 0; i < len; i++)
 800243a:	697b      	ldr	r3, [r7, #20]
 800243c:	3301      	adds	r3, #1
 800243e:	617b      	str	r3, [r7, #20]
 8002440:	697a      	ldr	r2, [r7, #20]
 8002442:	687b      	ldr	r3, [r7, #4]
 8002444:	429a      	cmp	r2, r3
 8002446:	dbf1      	blt.n	800242c <_write+0x12>
    }

    return len;
 8002448:	687b      	ldr	r3, [r7, #4]
}
 800244a:	4618      	mov	r0, r3
 800244c:	3718      	adds	r7, #24
 800244e:	46bd      	mov	sp, r7
 8002450:	bd80      	pop	{r7, pc}
	...

08002454 <main>:

/* -----------------------------------------------------------------------
 * main
 * ----------------------------------------------------------------------- */
int main(void)
{
 8002454:	b580      	push	{r7, lr}
 8002456:	b082      	sub	sp, #8
 8002458:	af00      	add	r7, sp, #0
    /* 1 — HAL and system init */
    HAL_Init();
 800245a:	f7fe f823 	bl	80004a4 <HAL_Init>
    __HAL_RCC_PWR_CLK_ENABLE();
 800245e:	4b12      	ldr	r3, [pc, #72]	@ (80024a8 <main+0x54>)
 8002460:	f8d3 3094 	ldr.w	r3, [r3, #148]	@ 0x94
 8002464:	4a10      	ldr	r2, [pc, #64]	@ (80024a8 <main+0x54>)
 8002466:	f043 0304 	orr.w	r3, r3, #4
 800246a:	f8c2 3094 	str.w	r3, [r2, #148]	@ 0x94
 800246e:	4b0e      	ldr	r3, [pc, #56]	@ (80024a8 <main+0x54>)
 8002470:	f8d3 3094 	ldr.w	r3, [r3, #148]	@ 0x94
 8002474:	f003 0304 	and.w	r3, r3, #4
 8002478:	607b      	str	r3, [r7, #4]
 800247a:	687b      	ldr	r3, [r7, #4]
    SystemPower_Config();
 800247c:	f000 f850 	bl	8002520 <SystemPower_Config>
    if (HAL_PWREx_ControlVoltageScaling(PWR_REGULATOR_VOLTAGE_SCALE2) != HAL_OK)
 8002480:	f44f 3000 	mov.w	r0, #131072	@ 0x20000
 8002484:	f7fe fc56 	bl	8000d34 <HAL_PWREx_ControlVoltageScaling>
 8002488:	4603      	mov	r3, r0
 800248a:	2b00      	cmp	r3, #0
 800248c:	d001      	beq.n	8002492 <main+0x3e>
    {
        Error_Handler();
 800248e:	f000 f905 	bl	800269c <Error_Handler>
    }
    SystemClock_Config();
 8002492:	f000 f851 	bl	8002538 <SystemClock_Config>
    MX_GPIO_Init();
 8002496:	f000 f8a3 	bl	80025e0 <MX_GPIO_Init>


    printf("BL start\n");
 800249a:	4804      	ldr	r0, [pc, #16]	@ (80024ac <main+0x58>)
 800249c:	f000 fb40 	bl	8002b20 <puts>

    Boot_RunStartupPolicy();
 80024a0:	f000 f81e 	bl	80024e0 <Boot_RunStartupPolicy>

    /* Should never reach here */
    while (1) {}
 80024a4:	bf00      	nop
 80024a6:	e7fd      	b.n	80024a4 <main+0x50>
 80024a8:	46020c00 	.word	0x46020c00
 80024ac:	08003a3c 	.word	0x08003a3c

080024b0 <Recovery_Loop>:
/* -----------------------------------------------------------------------
 * Recovery_Loop
 *   Blink the status LED to signal that no valid application was found.
 * ----------------------------------------------------------------------- */
static void Recovery_Loop(void)
{
 80024b0:	b580      	push	{r7, lr}
 80024b2:	b082      	sub	sp, #8
 80024b4:	af00      	add	r7, sp, #0
    uint32_t last_blink = HAL_GetTick();
 80024b6:	f7fe f8b7 	bl	8000628 <HAL_GetTick>
 80024ba:	6078      	str	r0, [r7, #4]

    while (1)
    {
        if ((HAL_GetTick() - last_blink) >= 250U)
 80024bc:	f7fe f8b4 	bl	8000628 <HAL_GetTick>
 80024c0:	4602      	mov	r2, r0
 80024c2:	687b      	ldr	r3, [r7, #4]
 80024c4:	1ad3      	subs	r3, r2, r3
 80024c6:	2bf9      	cmp	r3, #249	@ 0xf9
 80024c8:	d9f8      	bls.n	80024bc <Recovery_Loop+0xc>
        {
            last_blink = HAL_GetTick();
 80024ca:	f7fe f8ad 	bl	8000628 <HAL_GetTick>
 80024ce:	6078      	str	r0, [r7, #4]
            HAL_GPIO_TogglePin(BOOT_LED_GPIO_Port, BOOT_LED_Pin);
 80024d0:	f44f 4180 	mov.w	r1, #16384	@ 0x4000
 80024d4:	4801      	ldr	r0, [pc, #4]	@ (80024dc <Recovery_Loop+0x2c>)
 80024d6:	f7fe fc13 	bl	8000d00 <HAL_GPIO_TogglePin>
        if ((HAL_GetTick() - last_blink) >= 250U)
 80024da:	e7ef      	b.n	80024bc <Recovery_Loop+0xc>
 80024dc:	42020400 	.word	0x42020400

080024e0 <Boot_RunStartupPolicy>:
        }
    }
}

static void Boot_RunStartupPolicy(void)
{
 80024e0:	b580      	push	{r7, lr}
 80024e2:	b082      	sub	sp, #8
 80024e4:	af00      	add	r7, sp, #0
    uint8_t app_valid;

    app_valid = (uint8_t)Boot_IsApplicationValid(APP_BASE);
 80024e6:	480b      	ldr	r0, [pc, #44]	@ (8002514 <Boot_RunStartupPolicy+0x34>)
 80024e8:	f7fd ff04 	bl	80002f4 <Boot_IsApplicationValid>
 80024ec:	4603      	mov	r3, r0
 80024ee:	71fb      	strb	r3, [r7, #7]
#if BOOT_FORCE_INVALID_APP_FOR_TEST
    printf("[BOOT] TEST MODE: forcing application invalid\n");
    app_valid = 0U;
#endif

    if (app_valid != 0U)
 80024f0:	79fb      	ldrb	r3, [r7, #7]
 80024f2:	2b00      	cmp	r3, #0
 80024f4:	d005      	beq.n	8002502 <Boot_RunStartupPolicy+0x22>
    {
        printf("[BOOT] Valid app found -> jump\n");
 80024f6:	4808      	ldr	r0, [pc, #32]	@ (8002518 <Boot_RunStartupPolicy+0x38>)
 80024f8:	f000 fb12 	bl	8002b20 <puts>
        Boot_JumpToApplication(APP_BASE);
 80024fc:	4805      	ldr	r0, [pc, #20]	@ (8002514 <Boot_RunStartupPolicy+0x34>)
 80024fe:	f7fd ff57 	bl	80003b0 <Boot_JumpToApplication>
    }

    printf("[BOOT] No valid app -> recovery loop\n");
 8002502:	4806      	ldr	r0, [pc, #24]	@ (800251c <Boot_RunStartupPolicy+0x3c>)
 8002504:	f000 fb0c 	bl	8002b20 <puts>
    Recovery_Loop();
 8002508:	f7ff ffd2 	bl	80024b0 <Recovery_Loop>
}
 800250c:	bf00      	nop
 800250e:	3708      	adds	r7, #8
 8002510:	46bd      	mov	sp, r7
 8002512:	bd80      	pop	{r7, pc}
 8002514:	08020000 	.word	0x08020000
 8002518:	08003a48 	.word	0x08003a48
 800251c:	08003a68 	.word	0x08003a68

08002520 <SystemPower_Config>:
/* -----------------------------------------------------------------------
 * SystemPower_Config
 *   Same supply configuration as the application.
 * ----------------------------------------------------------------------- */
static void SystemPower_Config(void)
{
 8002520:	b580      	push	{r7, lr}
 8002522:	af00      	add	r7, sp, #0
//    HAL_PWREx_DisableUCPDDeadBattery();

    if (HAL_PWREx_ConfigSupply(PWR_LDO_SUPPLY) != HAL_OK)
 8002524:	2000      	movs	r0, #0
 8002526:	f7fe fc91 	bl	8000e4c <HAL_PWREx_ConfigSupply>
 800252a:	4603      	mov	r3, r0
 800252c:	2b00      	cmp	r3, #0
 800252e:	d001      	beq.n	8002534 <SystemPower_Config+0x14>
    {
        Error_Handler();
 8002530:	f000 f8b4 	bl	800269c <Error_Handler>
    }
}
 8002534:	bf00      	nop
 8002536:	bd80      	pop	{r7, pc}

08002538 <SystemClock_Config>:
 * SystemClock_Config
 *   Keep SYSCLK on HSI for stable bring-up, but enable HSE + PLL1 so the
 *   USB PHY can use a valid dedicated clock source.
 * ----------------------------------------------------------------------- */
static void SystemClock_Config(void)
{
 8002538:	b580      	push	{r7, lr}
 800253a:	b09e      	sub	sp, #120	@ 0x78
 800253c:	af00      	add	r7, sp, #0
    RCC_OscInitTypeDef RCC_OscInitStruct = {0};
 800253e:	f107 0318 	add.w	r3, r7, #24
 8002542:	2260      	movs	r2, #96	@ 0x60
 8002544:	2100      	movs	r1, #0
 8002546:	4618      	mov	r0, r3
 8002548:	f000 fbc8 	bl	8002cdc <memset>
    RCC_ClkInitTypeDef RCC_ClkInitStruct = {0};
 800254c:	463b      	mov	r3, r7
 800254e:	2200      	movs	r2, #0
 8002550:	601a      	str	r2, [r3, #0]
 8002552:	605a      	str	r2, [r3, #4]
 8002554:	609a      	str	r2, [r3, #8]
 8002556:	60da      	str	r2, [r3, #12]
 8002558:	611a      	str	r2, [r3, #16]
 800255a:	615a      	str	r2, [r3, #20]

    RCC_OscInitStruct.OscillatorType = RCC_OSCILLATORTYPE_HSI | RCC_OSCILLATORTYPE_HSE;
 800255c:	2303      	movs	r3, #3
 800255e:	61bb      	str	r3, [r7, #24]
    RCC_OscInitStruct.HSIState       = RCC_HSI_ON;
 8002560:	f44f 7380 	mov.w	r3, #256	@ 0x100
 8002564:	627b      	str	r3, [r7, #36]	@ 0x24
    RCC_OscInitStruct.HSEState       = RCC_HSE_ON;
 8002566:	f44f 3380 	mov.w	r3, #65536	@ 0x10000
 800256a:	61fb      	str	r3, [r7, #28]
    RCC_OscInitStruct.PLL.PLLState   = RCC_PLL_ON;
 800256c:	2302      	movs	r3, #2
 800256e:	653b      	str	r3, [r7, #80]	@ 0x50
    RCC_OscInitStruct.PLL.PLLSource  = RCC_PLLSOURCE_HSE;
 8002570:	2303      	movs	r3, #3
 8002572:	657b      	str	r3, [r7, #84]	@ 0x54
    RCC_OscInitStruct.PLL.PLLMBOOST  = RCC_PLLMBOOST_DIV2;
 8002574:	f44f 5380 	mov.w	r3, #4096	@ 0x1000
 8002578:	65fb      	str	r3, [r7, #92]	@ 0x5c
    RCC_OscInitStruct.PLL.PLLM       = 5;
 800257a:	2305      	movs	r3, #5
 800257c:	65bb      	str	r3, [r7, #88]	@ 0x58
    RCC_OscInitStruct.PLL.PLLN       = 64;
 800257e:	2340      	movs	r3, #64	@ 0x40
 8002580:	663b      	str	r3, [r7, #96]	@ 0x60
    RCC_OscInitStruct.PLL.PLLP       = 10;
 8002582:	230a      	movs	r3, #10
 8002584:	667b      	str	r3, [r7, #100]	@ 0x64
    RCC_OscInitStruct.PLL.PLLQ       = 2;
 8002586:	2302      	movs	r3, #2
 8002588:	66bb      	str	r3, [r7, #104]	@ 0x68
    RCC_OscInitStruct.PLL.PLLR       = 2;
 800258a:	2302      	movs	r3, #2
 800258c:	66fb      	str	r3, [r7, #108]	@ 0x6c
    RCC_OscInitStruct.PLL.PLLRGE     = RCC_PLLVCIRANGE_0;
 800258e:	2300      	movs	r3, #0
 8002590:	673b      	str	r3, [r7, #112]	@ 0x70
    RCC_OscInitStruct.PLL.PLLFRACN   = 0;
 8002592:	2300      	movs	r3, #0
 8002594:	677b      	str	r3, [r7, #116]	@ 0x74
    if (HAL_RCC_OscConfig(&RCC_OscInitStruct) != HAL_OK)
 8002596:	f107 0318 	add.w	r3, r7, #24
 800259a:	4618      	mov	r0, r3
 800259c:	f7fe fca6 	bl	8000eec <HAL_RCC_OscConfig>
 80025a0:	4603      	mov	r3, r0
 80025a2:	2b00      	cmp	r3, #0
 80025a4:	d001      	beq.n	80025aa <SystemClock_Config+0x72>
    {
        Error_Handler();
 80025a6:	f000 f879 	bl	800269c <Error_Handler>
    }

    RCC_ClkInitStruct.ClockType      = RCC_CLOCKTYPE_HCLK  | RCC_CLOCKTYPE_SYSCLK |
 80025aa:	231f      	movs	r3, #31
 80025ac:	603b      	str	r3, [r7, #0]
                                       RCC_CLOCKTYPE_PCLK1 | RCC_CLOCKTYPE_PCLK2  |
                                       RCC_CLOCKTYPE_PCLK3;
    RCC_ClkInitStruct.SYSCLKSource   = RCC_SYSCLKSOURCE_HSI;
 80025ae:	2301      	movs	r3, #1
 80025b0:	607b      	str	r3, [r7, #4]
    RCC_ClkInitStruct.AHBCLKDivider  = RCC_SYSCLK_DIV1;
 80025b2:	2300      	movs	r3, #0
 80025b4:	60bb      	str	r3, [r7, #8]
    RCC_ClkInitStruct.APB1CLKDivider = RCC_HCLK_DIV1;
 80025b6:	2300      	movs	r3, #0
 80025b8:	60fb      	str	r3, [r7, #12]
    RCC_ClkInitStruct.APB2CLKDivider = RCC_HCLK_DIV1;
 80025ba:	2300      	movs	r3, #0
 80025bc:	613b      	str	r3, [r7, #16]
    RCC_ClkInitStruct.APB3CLKDivider = RCC_HCLK_DIV1;
 80025be:	2300      	movs	r3, #0
 80025c0:	617b      	str	r3, [r7, #20]
    if (HAL_RCC_ClockConfig(&RCC_ClkInitStruct, FLASH_LATENCY_0) != HAL_OK)
 80025c2:	463b      	mov	r3, r7
 80025c4:	2100      	movs	r1, #0
 80025c6:	4618      	mov	r0, r3
 80025c8:	f7ff fb68 	bl	8001c9c <HAL_RCC_ClockConfig>
 80025cc:	4603      	mov	r3, r0
 80025ce:	2b00      	cmp	r3, #0
 80025d0:	d001      	beq.n	80025d6 <SystemClock_Config+0x9e>
    {
        Error_Handler();
 80025d2:	f000 f863 	bl	800269c <Error_Handler>
    }
}
 80025d6:	bf00      	nop
 80025d8:	3778      	adds	r7, #120	@ 0x78
 80025da:	46bd      	mov	sp, r7
 80025dc:	bd80      	pop	{r7, pc}
	...

080025e0 <MX_GPIO_Init>:
 *   Minimal GPIO init for the bootloader:
 *     - FS_PW_SW (PI15): output HIGH → VBUS OFF (active-low switch)
 *     - BOOT_LED (PB14): output LOW  → LED off initially
 * ----------------------------------------------------------------------- */
static void MX_GPIO_Init(void)
{
 80025e0:	b580      	push	{r7, lr}
 80025e2:	b088      	sub	sp, #32
 80025e4:	af00      	add	r7, sp, #0
    GPIO_InitTypeDef GPIO_InitStruct = {0};
 80025e6:	f107 030c 	add.w	r3, r7, #12
 80025ea:	2200      	movs	r2, #0
 80025ec:	601a      	str	r2, [r3, #0]
 80025ee:	605a      	str	r2, [r3, #4]
 80025f0:	609a      	str	r2, [r3, #8]
 80025f2:	60da      	str	r2, [r3, #12]
 80025f4:	611a      	str	r2, [r3, #16]

    __HAL_RCC_GPIOI_CLK_ENABLE();
 80025f6:	4b26      	ldr	r3, [pc, #152]	@ (8002690 <MX_GPIO_Init+0xb0>)
 80025f8:	f8d3 308c 	ldr.w	r3, [r3, #140]	@ 0x8c
 80025fc:	4a24      	ldr	r2, [pc, #144]	@ (8002690 <MX_GPIO_Init+0xb0>)
 80025fe:	f443 7380 	orr.w	r3, r3, #256	@ 0x100
 8002602:	f8c2 308c 	str.w	r3, [r2, #140]	@ 0x8c
 8002606:	4b22      	ldr	r3, [pc, #136]	@ (8002690 <MX_GPIO_Init+0xb0>)
 8002608:	f8d3 308c 	ldr.w	r3, [r3, #140]	@ 0x8c
 800260c:	f403 7380 	and.w	r3, r3, #256	@ 0x100
 8002610:	60bb      	str	r3, [r7, #8]
 8002612:	68bb      	ldr	r3, [r7, #8]
    __HAL_RCC_GPIOB_CLK_ENABLE();
 8002614:	4b1e      	ldr	r3, [pc, #120]	@ (8002690 <MX_GPIO_Init+0xb0>)
 8002616:	f8d3 308c 	ldr.w	r3, [r3, #140]	@ 0x8c
 800261a:	4a1d      	ldr	r2, [pc, #116]	@ (8002690 <MX_GPIO_Init+0xb0>)
 800261c:	f043 0302 	orr.w	r3, r3, #2
 8002620:	f8c2 308c 	str.w	r3, [r2, #140]	@ 0x8c
 8002624:	4b1a      	ldr	r3, [pc, #104]	@ (8002690 <MX_GPIO_Init+0xb0>)
 8002626:	f8d3 308c 	ldr.w	r3, [r3, #140]	@ 0x8c
 800262a:	f003 0302 	and.w	r3, r3, #2
 800262e:	607b      	str	r3, [r7, #4]
 8002630:	687b      	ldr	r3, [r7, #4]

    /* FS_PW_SW → HIGH = VBUS OFF */
    HAL_GPIO_WritePin(FS_PW_SW_GPIO_Port, FS_PW_SW_Pin, GPIO_PIN_SET);
 8002632:	2201      	movs	r2, #1
 8002634:	f44f 4100 	mov.w	r1, #32768	@ 0x8000
 8002638:	4816      	ldr	r0, [pc, #88]	@ (8002694 <MX_GPIO_Init+0xb4>)
 800263a:	f7fe fb49 	bl	8000cd0 <HAL_GPIO_WritePin>
    GPIO_InitStruct.Pin   = FS_PW_SW_Pin;
 800263e:	f44f 4300 	mov.w	r3, #32768	@ 0x8000
 8002642:	60fb      	str	r3, [r7, #12]
    GPIO_InitStruct.Mode  = GPIO_MODE_OUTPUT_PP;
 8002644:	2301      	movs	r3, #1
 8002646:	613b      	str	r3, [r7, #16]
    GPIO_InitStruct.Pull  = GPIO_NOPULL;
 8002648:	2300      	movs	r3, #0
 800264a:	617b      	str	r3, [r7, #20]
    GPIO_InitStruct.Speed = GPIO_SPEED_FREQ_LOW;
 800264c:	2300      	movs	r3, #0
 800264e:	61bb      	str	r3, [r7, #24]
    HAL_GPIO_Init(FS_PW_SW_GPIO_Port, &GPIO_InitStruct);
 8002650:	f107 030c 	add.w	r3, r7, #12
 8002654:	4619      	mov	r1, r3
 8002656:	480f      	ldr	r0, [pc, #60]	@ (8002694 <MX_GPIO_Init+0xb4>)
 8002658:	f7fe f95a 	bl	8000910 <HAL_GPIO_Init>

    /* BOOT_LED → LOW = off */
    HAL_GPIO_WritePin(BOOT_LED_GPIO_Port, BOOT_LED_Pin, GPIO_PIN_RESET);
 800265c:	2200      	movs	r2, #0
 800265e:	f44f 4180 	mov.w	r1, #16384	@ 0x4000
 8002662:	480d      	ldr	r0, [pc, #52]	@ (8002698 <MX_GPIO_Init+0xb8>)
 8002664:	f7fe fb34 	bl	8000cd0 <HAL_GPIO_WritePin>
    GPIO_InitStruct.Pin   = BOOT_LED_Pin;
 8002668:	f44f 4380 	mov.w	r3, #16384	@ 0x4000
 800266c:	60fb      	str	r3, [r7, #12]
    GPIO_InitStruct.Mode  = GPIO_MODE_OUTPUT_PP;
 800266e:	2301      	movs	r3, #1
 8002670:	613b      	str	r3, [r7, #16]
    GPIO_InitStruct.Pull  = GPIO_NOPULL;
 8002672:	2300      	movs	r3, #0
 8002674:	617b      	str	r3, [r7, #20]
    GPIO_InitStruct.Speed = GPIO_SPEED_FREQ_LOW;
 8002676:	2300      	movs	r3, #0
 8002678:	61bb      	str	r3, [r7, #24]
    HAL_GPIO_Init(BOOT_LED_GPIO_Port, &GPIO_InitStruct);
 800267a:	f107 030c 	add.w	r3, r7, #12
 800267e:	4619      	mov	r1, r3
 8002680:	4805      	ldr	r0, [pc, #20]	@ (8002698 <MX_GPIO_Init+0xb8>)
 8002682:	f7fe f945 	bl	8000910 <HAL_GPIO_Init>
}
 8002686:	bf00      	nop
 8002688:	3720      	adds	r7, #32
 800268a:	46bd      	mov	sp, r7
 800268c:	bd80      	pop	{r7, pc}
 800268e:	bf00      	nop
 8002690:	46020c00 	.word	0x46020c00
 8002694:	42022000 	.word	0x42022000
 8002698:	42020400 	.word	0x42020400

0800269c <Error_Handler>:

/* -----------------------------------------------------------------------
 * Error_Handler
 * ----------------------------------------------------------------------- */
void Error_Handler(void)
{
 800269c:	b480      	push	{r7}
 800269e:	af00      	add	r7, sp, #0
  __ASM volatile ("cpsid i" : : : "memory");
 80026a0:	b672      	cpsid	i
}
 80026a2:	bf00      	nop
    __disable_irq();
    while (1) {}
 80026a4:	bf00      	nop
 80026a6:	e7fd      	b.n	80026a4 <Error_Handler+0x8>

080026a8 <NMI_Handler>:

#include "main.h"
#include "stm32u5xx_hal.h"

void NMI_Handler(void)
{
 80026a8:	b480      	push	{r7}
 80026aa:	af00      	add	r7, sp, #0
    while (1) {}
 80026ac:	bf00      	nop
 80026ae:	e7fd      	b.n	80026ac <NMI_Handler+0x4>

080026b0 <HardFault_Handler>:
}

void HardFault_Handler(void)
{
 80026b0:	b480      	push	{r7}
 80026b2:	af00      	add	r7, sp, #0
    while (1) {}
 80026b4:	bf00      	nop
 80026b6:	e7fd      	b.n	80026b4 <HardFault_Handler+0x4>

080026b8 <MemManage_Handler>:
}

void MemManage_Handler(void)
{
 80026b8:	b480      	push	{r7}
 80026ba:	af00      	add	r7, sp, #0
    while (1) {}
 80026bc:	bf00      	nop
 80026be:	e7fd      	b.n	80026bc <MemManage_Handler+0x4>

080026c0 <BusFault_Handler>:
}

void BusFault_Handler(void)
{
 80026c0:	b480      	push	{r7}
 80026c2:	af00      	add	r7, sp, #0
    while (1) {}
 80026c4:	bf00      	nop
 80026c6:	e7fd      	b.n	80026c4 <BusFault_Handler+0x4>

080026c8 <UsageFault_Handler>:
}

void UsageFault_Handler(void)
{
 80026c8:	b480      	push	{r7}
 80026ca:	af00      	add	r7, sp, #0
    while (1) {}
 80026cc:	bf00      	nop
 80026ce:	e7fd      	b.n	80026cc <UsageFault_Handler+0x4>

080026d0 <DebugMon_Handler>:
}

void DebugMon_Handler(void)
{
 80026d0:	b480      	push	{r7}
 80026d2:	af00      	add	r7, sp, #0
}
 80026d4:	bf00      	nop
 80026d6:	46bd      	mov	sp, r7
 80026d8:	f85d 7b04 	ldr.w	r7, [sp], #4
 80026dc:	4770      	bx	lr

080026de <SysTick_Handler>:
  * @brief SysTick drives HAL_IncTick() in the bootloader.
  *        (The application uses TIM2 instead, but the bootloader
  *         keeps it simple with the default SysTick timebase.)
  */
void SysTick_Handler(void)
{
 80026de:	b580      	push	{r7, lr}
 80026e0:	af00      	add	r7, sp, #0
    HAL_IncTick();
 80026e2:	f7fd ff8d 	bl	8000600 <HAL_IncTick>
}
 80026e6:	bf00      	nop
 80026e8:	bd80      	pop	{r7, pc}

080026ea <_read>:
  _kill(status, -1);
  while (1) {}    /* Make sure we hang here */
}

__attribute__((weak)) int _read(int file, char *ptr, int len)
{
 80026ea:	b580      	push	{r7, lr}
 80026ec:	b086      	sub	sp, #24
 80026ee:	af00      	add	r7, sp, #0
 80026f0:	60f8      	str	r0, [r7, #12]
 80026f2:	60b9      	str	r1, [r7, #8]
 80026f4:	607a      	str	r2, [r7, #4]
  (void)file;
  int DataIdx;

  for (DataIdx = 0; DataIdx < len; DataIdx++)
 80026f6:	2300      	movs	r3, #0
 80026f8:	617b      	str	r3, [r7, #20]
 80026fa:	e00a      	b.n	8002712 <_read+0x28>
  {
    *ptr++ = __io_getchar();
 80026fc:	f3af 8000 	nop.w
 8002700:	4601      	mov	r1, r0
 8002702:	68bb      	ldr	r3, [r7, #8]
 8002704:	1c5a      	adds	r2, r3, #1
 8002706:	60ba      	str	r2, [r7, #8]
 8002708:	b2ca      	uxtb	r2, r1
 800270a:	701a      	strb	r2, [r3, #0]
  for (DataIdx = 0; DataIdx < len; DataIdx++)
 800270c:	697b      	ldr	r3, [r7, #20]
 800270e:	3301      	adds	r3, #1
 8002710:	617b      	str	r3, [r7, #20]
 8002712:	697a      	ldr	r2, [r7, #20]
 8002714:	687b      	ldr	r3, [r7, #4]
 8002716:	429a      	cmp	r2, r3
 8002718:	dbf0      	blt.n	80026fc <_read+0x12>
  }

  return len;
 800271a:	687b      	ldr	r3, [r7, #4]
}
 800271c:	4618      	mov	r0, r3
 800271e:	3718      	adds	r7, #24
 8002720:	46bd      	mov	sp, r7
 8002722:	bd80      	pop	{r7, pc}

08002724 <_close>:
  }
  return len;
}

int _close(int file)
{
 8002724:	b480      	push	{r7}
 8002726:	b083      	sub	sp, #12
 8002728:	af00      	add	r7, sp, #0
 800272a:	6078      	str	r0, [r7, #4]
  (void)file;
  return -1;
 800272c:	f04f 33ff 	mov.w	r3, #4294967295
}
 8002730:	4618      	mov	r0, r3
 8002732:	370c      	adds	r7, #12
 8002734:	46bd      	mov	sp, r7
 8002736:	f85d 7b04 	ldr.w	r7, [sp], #4
 800273a:	4770      	bx	lr

0800273c <_fstat>:


int _fstat(int file, struct stat *st)
{
 800273c:	b480      	push	{r7}
 800273e:	b083      	sub	sp, #12
 8002740:	af00      	add	r7, sp, #0
 8002742:	6078      	str	r0, [r7, #4]
 8002744:	6039      	str	r1, [r7, #0]
  (void)file;
  st->st_mode = S_IFCHR;
 8002746:	683b      	ldr	r3, [r7, #0]
 8002748:	f44f 5200 	mov.w	r2, #8192	@ 0x2000
 800274c:	605a      	str	r2, [r3, #4]
  return 0;
 800274e:	2300      	movs	r3, #0
}
 8002750:	4618      	mov	r0, r3
 8002752:	370c      	adds	r7, #12
 8002754:	46bd      	mov	sp, r7
 8002756:	f85d 7b04 	ldr.w	r7, [sp], #4
 800275a:	4770      	bx	lr

0800275c <_isatty>:

int _isatty(int file)
{
 800275c:	b480      	push	{r7}
 800275e:	b083      	sub	sp, #12
 8002760:	af00      	add	r7, sp, #0
 8002762:	6078      	str	r0, [r7, #4]
  (void)file;
  return 1;
 8002764:	2301      	movs	r3, #1
}
 8002766:	4618      	mov	r0, r3
 8002768:	370c      	adds	r7, #12
 800276a:	46bd      	mov	sp, r7
 800276c:	f85d 7b04 	ldr.w	r7, [sp], #4
 8002770:	4770      	bx	lr

08002772 <_lseek>:

int _lseek(int file, int ptr, int dir)
{
 8002772:	b480      	push	{r7}
 8002774:	b085      	sub	sp, #20
 8002776:	af00      	add	r7, sp, #0
 8002778:	60f8      	str	r0, [r7, #12]
 800277a:	60b9      	str	r1, [r7, #8]
 800277c:	607a      	str	r2, [r7, #4]
  (void)file;
  (void)ptr;
  (void)dir;
  return 0;
 800277e:	2300      	movs	r3, #0
}
 8002780:	4618      	mov	r0, r3
 8002782:	3714      	adds	r7, #20
 8002784:	46bd      	mov	sp, r7
 8002786:	f85d 7b04 	ldr.w	r7, [sp], #4
 800278a:	4770      	bx	lr

0800278c <_sbrk>:
 *
 * @param incr Memory size
 * @return Pointer to allocated memory
 */
void *_sbrk(ptrdiff_t incr)
{
 800278c:	b580      	push	{r7, lr}
 800278e:	b086      	sub	sp, #24
 8002790:	af00      	add	r7, sp, #0
 8002792:	6078      	str	r0, [r7, #4]
  extern uint8_t _end; /* Symbol defined in the linker script */
  extern uint8_t _estack; /* Symbol defined in the linker script */
  extern uint32_t _Min_Stack_Size; /* Symbol defined in the linker script */
  const uint32_t stack_limit = (uint32_t)&_estack - (uint32_t)&_Min_Stack_Size;
 8002794:	4a14      	ldr	r2, [pc, #80]	@ (80027e8 <_sbrk+0x5c>)
 8002796:	4b15      	ldr	r3, [pc, #84]	@ (80027ec <_sbrk+0x60>)
 8002798:	1ad3      	subs	r3, r2, r3
 800279a:	617b      	str	r3, [r7, #20]
  const uint8_t *max_heap = (uint8_t *)stack_limit;
 800279c:	697b      	ldr	r3, [r7, #20]
 800279e:	613b      	str	r3, [r7, #16]
  uint8_t *prev_heap_end;

  /* Initialize heap end at first call */
  if (NULL == __sbrk_heap_end)
 80027a0:	4b13      	ldr	r3, [pc, #76]	@ (80027f0 <_sbrk+0x64>)
 80027a2:	681b      	ldr	r3, [r3, #0]
 80027a4:	2b00      	cmp	r3, #0
 80027a6:	d102      	bne.n	80027ae <_sbrk+0x22>
  {
    __sbrk_heap_end = &_end;
 80027a8:	4b11      	ldr	r3, [pc, #68]	@ (80027f0 <_sbrk+0x64>)
 80027aa:	4a12      	ldr	r2, [pc, #72]	@ (80027f4 <_sbrk+0x68>)
 80027ac:	601a      	str	r2, [r3, #0]
  }

  /* Protect heap from growing into the reserved MSP stack */
  if (__sbrk_heap_end + incr > max_heap)
 80027ae:	4b10      	ldr	r3, [pc, #64]	@ (80027f0 <_sbrk+0x64>)
 80027b0:	681a      	ldr	r2, [r3, #0]
 80027b2:	687b      	ldr	r3, [r7, #4]
 80027b4:	4413      	add	r3, r2
 80027b6:	693a      	ldr	r2, [r7, #16]
 80027b8:	429a      	cmp	r2, r3
 80027ba:	d207      	bcs.n	80027cc <_sbrk+0x40>
  {
    errno = ENOMEM;
 80027bc:	f000 fadc 	bl	8002d78 <__errno>
 80027c0:	4603      	mov	r3, r0
 80027c2:	220c      	movs	r2, #12
 80027c4:	601a      	str	r2, [r3, #0]
    return (void *)-1;
 80027c6:	f04f 33ff 	mov.w	r3, #4294967295
 80027ca:	e009      	b.n	80027e0 <_sbrk+0x54>
  }

  prev_heap_end = __sbrk_heap_end;
 80027cc:	4b08      	ldr	r3, [pc, #32]	@ (80027f0 <_sbrk+0x64>)
 80027ce:	681b      	ldr	r3, [r3, #0]
 80027d0:	60fb      	str	r3, [r7, #12]
  __sbrk_heap_end += incr;
 80027d2:	4b07      	ldr	r3, [pc, #28]	@ (80027f0 <_sbrk+0x64>)
 80027d4:	681a      	ldr	r2, [r3, #0]
 80027d6:	687b      	ldr	r3, [r7, #4]
 80027d8:	4413      	add	r3, r2
 80027da:	4a05      	ldr	r2, [pc, #20]	@ (80027f0 <_sbrk+0x64>)
 80027dc:	6013      	str	r3, [r2, #0]

  return (void *)prev_heap_end;
 80027de:	68fb      	ldr	r3, [r7, #12]
}
 80027e0:	4618      	mov	r0, r3
 80027e2:	3718      	adds	r7, #24
 80027e4:	46bd      	mov	sp, r7
 80027e6:	bd80      	pop	{r7, pc}
 80027e8:	20270000 	.word	0x20270000
 80027ec:	00002000 	.word	0x00002000
 80027f0:	20000088 	.word	0x20000088
 80027f4:	200001d8 	.word	0x200001d8

080027f8 <SystemInit>:
     3072000U,  1536000U,  1024000U,   768000U,
      400000U,   200000U,   133000U,   100000U
};

void SystemInit(void)
{
 80027f8:	b480      	push	{r7}
 80027fa:	af00      	add	r7, sp, #0
#if (__FPU_PRESENT == 1) && (__FPU_USED == 1)
    SCB->CPACR |= ((3UL << 20U) | (3UL << 22U));
 80027fc:	4b18      	ldr	r3, [pc, #96]	@ (8002860 <SystemInit+0x68>)
 80027fe:	f8d3 3088 	ldr.w	r3, [r3, #136]	@ 0x88
 8002802:	4a17      	ldr	r2, [pc, #92]	@ (8002860 <SystemInit+0x68>)
 8002804:	f443 0370 	orr.w	r3, r3, #15728640	@ 0xf00000
 8002808:	f8c2 3088 	str.w	r3, [r2, #136]	@ 0x88
#endif

    RCC->CR = RCC_CR_MSISON;
 800280c:	4b15      	ldr	r3, [pc, #84]	@ (8002864 <SystemInit+0x6c>)
 800280e:	2201      	movs	r2, #1
 8002810:	601a      	str	r2, [r3, #0]
    RCC->CFGR1 = 0U;
 8002812:	4b14      	ldr	r3, [pc, #80]	@ (8002864 <SystemInit+0x6c>)
 8002814:	2200      	movs	r2, #0
 8002816:	61da      	str	r2, [r3, #28]
    RCC->CFGR2 = 0U;
 8002818:	4b12      	ldr	r3, [pc, #72]	@ (8002864 <SystemInit+0x6c>)
 800281a:	2200      	movs	r2, #0
 800281c:	621a      	str	r2, [r3, #32]
    RCC->CFGR3 = 0U;
 800281e:	4b11      	ldr	r3, [pc, #68]	@ (8002864 <SystemInit+0x6c>)
 8002820:	2200      	movs	r2, #0
 8002822:	625a      	str	r2, [r3, #36]	@ 0x24
    RCC->CR &= ~(RCC_CR_HSEON | RCC_CR_CSSON | RCC_CR_PLL1ON | RCC_CR_PLL2ON | RCC_CR_PLL3ON);
 8002824:	4b0f      	ldr	r3, [pc, #60]	@ (8002864 <SystemInit+0x6c>)
 8002826:	681b      	ldr	r3, [r3, #0]
 8002828:	4a0e      	ldr	r2, [pc, #56]	@ (8002864 <SystemInit+0x6c>)
 800282a:	f023 53a8 	bic.w	r3, r3, #352321536	@ 0x15000000
 800282e:	f423 2310 	bic.w	r3, r3, #589824	@ 0x90000
 8002832:	6013      	str	r3, [r2, #0]
    RCC->PLL1CFGR = 0U;
 8002834:	4b0b      	ldr	r3, [pc, #44]	@ (8002864 <SystemInit+0x6c>)
 8002836:	2200      	movs	r2, #0
 8002838:	629a      	str	r2, [r3, #40]	@ 0x28
    RCC->CR &= ~(RCC_CR_HSEBYP);
 800283a:	4b0a      	ldr	r3, [pc, #40]	@ (8002864 <SystemInit+0x6c>)
 800283c:	681b      	ldr	r3, [r3, #0]
 800283e:	4a09      	ldr	r2, [pc, #36]	@ (8002864 <SystemInit+0x6c>)
 8002840:	f423 2380 	bic.w	r3, r3, #262144	@ 0x40000
 8002844:	6013      	str	r3, [r2, #0]
    RCC->CIER = 0U;
 8002846:	4b07      	ldr	r3, [pc, #28]	@ (8002864 <SystemInit+0x6c>)
 8002848:	2200      	movs	r2, #0
 800284a:	651a      	str	r2, [r3, #80]	@ 0x50

#ifdef VECT_TAB_SRAM
    SCB->VTOR = SRAM1_BASE | VECT_TAB_OFFSET;
#else
    SCB->VTOR = FLASH_BASE | VECT_TAB_OFFSET;   /* 0x08000000 — bootloader base */
 800284c:	4b04      	ldr	r3, [pc, #16]	@ (8002860 <SystemInit+0x68>)
 800284e:	f04f 6200 	mov.w	r2, #134217728	@ 0x8000000
 8002852:	609a      	str	r2, [r3, #8]
#endif
}
 8002854:	bf00      	nop
 8002856:	46bd      	mov	sp, r7
 8002858:	f85d 7b04 	ldr.w	r7, [sp], #4
 800285c:	4770      	bx	lr
 800285e:	bf00      	nop
 8002860:	e000ed00 	.word	0xe000ed00
 8002864:	46020c00 	.word	0x46020c00

08002868 <Reset_Handler>:

  .section .text.Reset_Handler
  .weak Reset_Handler
  .type Reset_Handler, %function
Reset_Handler:
  ldr   sp, =_estack    /* set stack pointer */
 8002868:	f8df d03c 	ldr.w	sp, [pc, #60]	@ 80028a8 <LoopForever+0x4>
  ldr   r0, =_sstack
 800286c:	480f      	ldr	r0, [pc, #60]	@ (80028ac <LoopForever+0x8>)
  msr   MSPLIM, r0      /* set stack pointer limit */
 800286e:	f380 880a 	msr	MSPLIM, r0
/* Call the clock system initialization function.*/
  bl  SystemInit
 8002872:	f7ff ffc1 	bl	80027f8 <SystemInit>

/* Copy the data segment initializers from flash to SRAM */
  ldr r0, =_sdata
 8002876:	480e      	ldr	r0, [pc, #56]	@ (80028b0 <LoopForever+0xc>)
  ldr r1, =_edata
 8002878:	490e      	ldr	r1, [pc, #56]	@ (80028b4 <LoopForever+0x10>)
  ldr r2, =_sidata
 800287a:	4a0f      	ldr	r2, [pc, #60]	@ (80028b8 <LoopForever+0x14>)
  movs r3, #0
 800287c:	2300      	movs	r3, #0
  b LoopCopyDataInit
 800287e:	e002      	b.n	8002886 <LoopCopyDataInit>

08002880 <CopyDataInit>:

CopyDataInit:
  ldr r4, [r2, r3]
 8002880:	58d4      	ldr	r4, [r2, r3]
  str r4, [r0, r3]
 8002882:	50c4      	str	r4, [r0, r3]
  adds r3, r3, #4
 8002884:	3304      	adds	r3, #4

08002886 <LoopCopyDataInit>:

LoopCopyDataInit:
  adds r4, r0, r3
 8002886:	18c4      	adds	r4, r0, r3
  cmp r4, r1
 8002888:	428c      	cmp	r4, r1
  bcc CopyDataInit
 800288a:	d3f9      	bcc.n	8002880 <CopyDataInit>

/* Zero fill the bss segment. */
  ldr r2, =_sbss
 800288c:	4a0b      	ldr	r2, [pc, #44]	@ (80028bc <LoopForever+0x18>)
  ldr r4, =_ebss
 800288e:	4c0c      	ldr	r4, [pc, #48]	@ (80028c0 <LoopForever+0x1c>)
  movs r3, #0
 8002890:	2300      	movs	r3, #0
  b LoopFillZerobss
 8002892:	e001      	b.n	8002898 <LoopFillZerobss>

08002894 <FillZerobss>:

FillZerobss:
  str  r3, [r2]
 8002894:	6013      	str	r3, [r2, #0]
  adds r2, r2, #4
 8002896:	3204      	adds	r2, #4

08002898 <LoopFillZerobss>:

LoopFillZerobss:
  cmp r2, r4
 8002898:	42a2      	cmp	r2, r4
  bcc FillZerobss
 800289a:	d3fb      	bcc.n	8002894 <FillZerobss>


/* Call static constructors */
  bl __libc_init_array
 800289c:	f000 fa72 	bl	8002d84 <__libc_init_array>
/* Call the application's entry point.*/

  bl main
 80028a0:	f7ff fdd8 	bl	8002454 <main>

080028a4 <LoopForever>:

LoopForever:
  b LoopForever
 80028a4:	e7fe      	b.n	80028a4 <LoopForever>
 80028a6:	0000      	.short	0x0000
  ldr   sp, =_estack    /* set stack pointer */
 80028a8:	20270000 	.word	0x20270000
  ldr   r0, =_sstack
 80028ac:	2026e000 	.word	0x2026e000
  ldr r0, =_sdata
 80028b0:	20000000 	.word	0x20000000
  ldr r1, =_edata
 80028b4:	20000068 	.word	0x20000068
  ldr r2, =_sidata
 80028b8:	08003b9c 	.word	0x08003b9c
  ldr r2, =_sbss
 80028bc:	20000068 	.word	0x20000068
  ldr r4, =_ebss
 80028c0:	200001d8 	.word	0x200001d8

080028c4 <ADC12_IRQHandler>:
 * @retval : None
*/
  .section .text.Default_Handler,"ax",%progbits
Default_Handler:
Infinite_Loop:
  b Infinite_Loop
 80028c4:	e7fe      	b.n	80028c4 <ADC12_IRQHandler>
	...

080028c8 <std>:
 80028c8:	2300      	movs	r3, #0
 80028ca:	b510      	push	{r4, lr}
 80028cc:	4604      	mov	r4, r0
 80028ce:	6083      	str	r3, [r0, #8]
 80028d0:	8181      	strh	r1, [r0, #12]
 80028d2:	4619      	mov	r1, r3
 80028d4:	6643      	str	r3, [r0, #100]	@ 0x64
 80028d6:	81c2      	strh	r2, [r0, #14]
 80028d8:	2208      	movs	r2, #8
 80028da:	6183      	str	r3, [r0, #24]
 80028dc:	e9c0 3300 	strd	r3, r3, [r0]
 80028e0:	e9c0 3304 	strd	r3, r3, [r0, #16]
 80028e4:	305c      	adds	r0, #92	@ 0x5c
 80028e6:	f000 f9f9 	bl	8002cdc <memset>
 80028ea:	4b0d      	ldr	r3, [pc, #52]	@ (8002920 <std+0x58>)
 80028ec:	6224      	str	r4, [r4, #32]
 80028ee:	6263      	str	r3, [r4, #36]	@ 0x24
 80028f0:	4b0c      	ldr	r3, [pc, #48]	@ (8002924 <std+0x5c>)
 80028f2:	62a3      	str	r3, [r4, #40]	@ 0x28
 80028f4:	4b0c      	ldr	r3, [pc, #48]	@ (8002928 <std+0x60>)
 80028f6:	62e3      	str	r3, [r4, #44]	@ 0x2c
 80028f8:	4b0c      	ldr	r3, [pc, #48]	@ (800292c <std+0x64>)
 80028fa:	6323      	str	r3, [r4, #48]	@ 0x30
 80028fc:	4b0c      	ldr	r3, [pc, #48]	@ (8002930 <std+0x68>)
 80028fe:	429c      	cmp	r4, r3
 8002900:	d006      	beq.n	8002910 <std+0x48>
 8002902:	f103 0268 	add.w	r2, r3, #104	@ 0x68
 8002906:	4294      	cmp	r4, r2
 8002908:	d002      	beq.n	8002910 <std+0x48>
 800290a:	33d0      	adds	r3, #208	@ 0xd0
 800290c:	429c      	cmp	r4, r3
 800290e:	d105      	bne.n	800291c <std+0x54>
 8002910:	f104 0058 	add.w	r0, r4, #88	@ 0x58
 8002914:	e8bd 4010 	ldmia.w	sp!, {r4, lr}
 8002918:	f000 ba58 	b.w	8002dcc <__retarget_lock_init_recursive>
 800291c:	bd10      	pop	{r4, pc}
 800291e:	bf00      	nop
 8002920:	08002b31 	.word	0x08002b31
 8002924:	08002b53 	.word	0x08002b53
 8002928:	08002b8b 	.word	0x08002b8b
 800292c:	08002bb1 	.word	0x08002bb1
 8002930:	2000008c 	.word	0x2000008c

08002934 <stdio_exit_handler>:
 8002934:	4a02      	ldr	r2, [pc, #8]	@ (8002940 <stdio_exit_handler+0xc>)
 8002936:	4903      	ldr	r1, [pc, #12]	@ (8002944 <stdio_exit_handler+0x10>)
 8002938:	4803      	ldr	r0, [pc, #12]	@ (8002948 <stdio_exit_handler+0x14>)
 800293a:	f000 b86b 	b.w	8002a14 <_fwalk_sglue>
 800293e:	bf00      	nop
 8002940:	2000000c 	.word	0x2000000c
 8002944:	08003671 	.word	0x08003671
 8002948:	2000001c 	.word	0x2000001c

0800294c <cleanup_stdio>:
 800294c:	6841      	ldr	r1, [r0, #4]
 800294e:	4b0c      	ldr	r3, [pc, #48]	@ (8002980 <cleanup_stdio+0x34>)
 8002950:	4299      	cmp	r1, r3
 8002952:	b510      	push	{r4, lr}
 8002954:	4604      	mov	r4, r0
 8002956:	d001      	beq.n	800295c <cleanup_stdio+0x10>
 8002958:	f000 fe8a 	bl	8003670 <_fflush_r>
 800295c:	68a1      	ldr	r1, [r4, #8]
 800295e:	4b09      	ldr	r3, [pc, #36]	@ (8002984 <cleanup_stdio+0x38>)
 8002960:	4299      	cmp	r1, r3
 8002962:	d002      	beq.n	800296a <cleanup_stdio+0x1e>
 8002964:	4620      	mov	r0, r4
 8002966:	f000 fe83 	bl	8003670 <_fflush_r>
 800296a:	68e1      	ldr	r1, [r4, #12]
 800296c:	4b06      	ldr	r3, [pc, #24]	@ (8002988 <cleanup_stdio+0x3c>)
 800296e:	4299      	cmp	r1, r3
 8002970:	d004      	beq.n	800297c <cleanup_stdio+0x30>
 8002972:	4620      	mov	r0, r4
 8002974:	e8bd 4010 	ldmia.w	sp!, {r4, lr}
 8002978:	f000 be7a 	b.w	8003670 <_fflush_r>
 800297c:	bd10      	pop	{r4, pc}
 800297e:	bf00      	nop
 8002980:	2000008c 	.word	0x2000008c
 8002984:	200000f4 	.word	0x200000f4
 8002988:	2000015c 	.word	0x2000015c

0800298c <global_stdio_init.part.0>:
 800298c:	4b0c      	ldr	r3, [pc, #48]	@ (80029c0 <global_stdio_init.part.0+0x34>)
 800298e:	2104      	movs	r1, #4
 8002990:	4a0c      	ldr	r2, [pc, #48]	@ (80029c4 <global_stdio_init.part.0+0x38>)
 8002992:	480d      	ldr	r0, [pc, #52]	@ (80029c8 <global_stdio_init.part.0+0x3c>)
 8002994:	b510      	push	{r4, lr}
 8002996:	601a      	str	r2, [r3, #0]
 8002998:	2200      	movs	r2, #0
 800299a:	f7ff ff95 	bl	80028c8 <std>
 800299e:	4b0a      	ldr	r3, [pc, #40]	@ (80029c8 <global_stdio_init.part.0+0x3c>)
 80029a0:	2201      	movs	r2, #1
 80029a2:	2109      	movs	r1, #9
 80029a4:	461c      	mov	r4, r3
 80029a6:	f103 0068 	add.w	r0, r3, #104	@ 0x68
 80029aa:	f7ff ff8d 	bl	80028c8 <std>
 80029ae:	2202      	movs	r2, #2
 80029b0:	f104 00d0 	add.w	r0, r4, #208	@ 0xd0
 80029b4:	2112      	movs	r1, #18
 80029b6:	e8bd 4010 	ldmia.w	sp!, {r4, lr}
 80029ba:	f7ff bf85 	b.w	80028c8 <std>
 80029be:	bf00      	nop
 80029c0:	200001c4 	.word	0x200001c4
 80029c4:	08002935 	.word	0x08002935
 80029c8:	2000008c 	.word	0x2000008c

080029cc <__sfp_lock_acquire>:
 80029cc:	4801      	ldr	r0, [pc, #4]	@ (80029d4 <__sfp_lock_acquire+0x8>)
 80029ce:	f000 b9fe 	b.w	8002dce <__retarget_lock_acquire_recursive>
 80029d2:	bf00      	nop
 80029d4:	200001cd 	.word	0x200001cd

080029d8 <__sfp_lock_release>:
 80029d8:	4801      	ldr	r0, [pc, #4]	@ (80029e0 <__sfp_lock_release+0x8>)
 80029da:	f000 b9f9 	b.w	8002dd0 <__retarget_lock_release_recursive>
 80029de:	bf00      	nop
 80029e0:	200001cd 	.word	0x200001cd

080029e4 <__sinit>:
 80029e4:	b510      	push	{r4, lr}
 80029e6:	4604      	mov	r4, r0
 80029e8:	f7ff fff0 	bl	80029cc <__sfp_lock_acquire>
 80029ec:	6a23      	ldr	r3, [r4, #32]
 80029ee:	b11b      	cbz	r3, 80029f8 <__sinit+0x14>
 80029f0:	e8bd 4010 	ldmia.w	sp!, {r4, lr}
 80029f4:	f7ff bff0 	b.w	80029d8 <__sfp_lock_release>
 80029f8:	4b04      	ldr	r3, [pc, #16]	@ (8002a0c <__sinit+0x28>)
 80029fa:	6223      	str	r3, [r4, #32]
 80029fc:	4b04      	ldr	r3, [pc, #16]	@ (8002a10 <__sinit+0x2c>)
 80029fe:	681b      	ldr	r3, [r3, #0]
 8002a00:	2b00      	cmp	r3, #0
 8002a02:	d1f5      	bne.n	80029f0 <__sinit+0xc>
 8002a04:	f7ff ffc2 	bl	800298c <global_stdio_init.part.0>
 8002a08:	e7f2      	b.n	80029f0 <__sinit+0xc>
 8002a0a:	bf00      	nop
 8002a0c:	0800294d 	.word	0x0800294d
 8002a10:	200001c4 	.word	0x200001c4

08002a14 <_fwalk_sglue>:
 8002a14:	e92d 43f8 	stmdb	sp!, {r3, r4, r5, r6, r7, r8, r9, lr}
 8002a18:	4607      	mov	r7, r0
 8002a1a:	4688      	mov	r8, r1
 8002a1c:	4614      	mov	r4, r2
 8002a1e:	2600      	movs	r6, #0
 8002a20:	e9d4 9501 	ldrd	r9, r5, [r4, #4]
 8002a24:	f1b9 0901 	subs.w	r9, r9, #1
 8002a28:	d505      	bpl.n	8002a36 <_fwalk_sglue+0x22>
 8002a2a:	6824      	ldr	r4, [r4, #0]
 8002a2c:	2c00      	cmp	r4, #0
 8002a2e:	d1f7      	bne.n	8002a20 <_fwalk_sglue+0xc>
 8002a30:	4630      	mov	r0, r6
 8002a32:	e8bd 83f8 	ldmia.w	sp!, {r3, r4, r5, r6, r7, r8, r9, pc}
 8002a36:	89ab      	ldrh	r3, [r5, #12]
 8002a38:	2b01      	cmp	r3, #1
 8002a3a:	d907      	bls.n	8002a4c <_fwalk_sglue+0x38>
 8002a3c:	f9b5 300e 	ldrsh.w	r3, [r5, #14]
 8002a40:	3301      	adds	r3, #1
 8002a42:	d003      	beq.n	8002a4c <_fwalk_sglue+0x38>
 8002a44:	4629      	mov	r1, r5
 8002a46:	4638      	mov	r0, r7
 8002a48:	47c0      	blx	r8
 8002a4a:	4306      	orrs	r6, r0
 8002a4c:	3568      	adds	r5, #104	@ 0x68
 8002a4e:	e7e9      	b.n	8002a24 <_fwalk_sglue+0x10>

08002a50 <iprintf>:
 8002a50:	b40f      	push	{r0, r1, r2, r3}
 8002a52:	b507      	push	{r0, r1, r2, lr}
 8002a54:	4906      	ldr	r1, [pc, #24]	@ (8002a70 <iprintf+0x20>)
 8002a56:	ab04      	add	r3, sp, #16
 8002a58:	6808      	ldr	r0, [r1, #0]
 8002a5a:	f853 2b04 	ldr.w	r2, [r3], #4
 8002a5e:	6881      	ldr	r1, [r0, #8]
 8002a60:	9301      	str	r3, [sp, #4]
 8002a62:	f000 fad9 	bl	8003018 <_vfiprintf_r>
 8002a66:	b003      	add	sp, #12
 8002a68:	f85d eb04 	ldr.w	lr, [sp], #4
 8002a6c:	b004      	add	sp, #16
 8002a6e:	4770      	bx	lr
 8002a70:	20000018 	.word	0x20000018

08002a74 <_puts_r>:
 8002a74:	6a03      	ldr	r3, [r0, #32]
 8002a76:	b570      	push	{r4, r5, r6, lr}
 8002a78:	4605      	mov	r5, r0
 8002a7a:	460e      	mov	r6, r1
 8002a7c:	6884      	ldr	r4, [r0, #8]
 8002a7e:	b90b      	cbnz	r3, 8002a84 <_puts_r+0x10>
 8002a80:	f7ff ffb0 	bl	80029e4 <__sinit>
 8002a84:	6e63      	ldr	r3, [r4, #100]	@ 0x64
 8002a86:	07db      	lsls	r3, r3, #31
 8002a88:	d405      	bmi.n	8002a96 <_puts_r+0x22>
 8002a8a:	89a3      	ldrh	r3, [r4, #12]
 8002a8c:	0598      	lsls	r0, r3, #22
 8002a8e:	d402      	bmi.n	8002a96 <_puts_r+0x22>
 8002a90:	6da0      	ldr	r0, [r4, #88]	@ 0x58
 8002a92:	f000 f99c 	bl	8002dce <__retarget_lock_acquire_recursive>
 8002a96:	89a3      	ldrh	r3, [r4, #12]
 8002a98:	0719      	lsls	r1, r3, #28
 8002a9a:	d502      	bpl.n	8002aa2 <_puts_r+0x2e>
 8002a9c:	6923      	ldr	r3, [r4, #16]
 8002a9e:	2b00      	cmp	r3, #0
 8002aa0:	d135      	bne.n	8002b0e <_puts_r+0x9a>
 8002aa2:	4621      	mov	r1, r4
 8002aa4:	4628      	mov	r0, r5
 8002aa6:	f000 f8c5 	bl	8002c34 <__swsetup_r>
 8002aaa:	b380      	cbz	r0, 8002b0e <_puts_r+0x9a>
 8002aac:	f04f 35ff 	mov.w	r5, #4294967295
 8002ab0:	6e63      	ldr	r3, [r4, #100]	@ 0x64
 8002ab2:	07da      	lsls	r2, r3, #31
 8002ab4:	d405      	bmi.n	8002ac2 <_puts_r+0x4e>
 8002ab6:	89a3      	ldrh	r3, [r4, #12]
 8002ab8:	059b      	lsls	r3, r3, #22
 8002aba:	d402      	bmi.n	8002ac2 <_puts_r+0x4e>
 8002abc:	6da0      	ldr	r0, [r4, #88]	@ 0x58
 8002abe:	f000 f987 	bl	8002dd0 <__retarget_lock_release_recursive>
 8002ac2:	4628      	mov	r0, r5
 8002ac4:	bd70      	pop	{r4, r5, r6, pc}
 8002ac6:	2b00      	cmp	r3, #0
 8002ac8:	da04      	bge.n	8002ad4 <_puts_r+0x60>
 8002aca:	69a2      	ldr	r2, [r4, #24]
 8002acc:	4293      	cmp	r3, r2
 8002ace:	db17      	blt.n	8002b00 <_puts_r+0x8c>
 8002ad0:	290a      	cmp	r1, #10
 8002ad2:	d015      	beq.n	8002b00 <_puts_r+0x8c>
 8002ad4:	6823      	ldr	r3, [r4, #0]
 8002ad6:	1c5a      	adds	r2, r3, #1
 8002ad8:	6022      	str	r2, [r4, #0]
 8002ada:	7019      	strb	r1, [r3, #0]
 8002adc:	68a3      	ldr	r3, [r4, #8]
 8002ade:	f816 1f01 	ldrb.w	r1, [r6, #1]!
 8002ae2:	3b01      	subs	r3, #1
 8002ae4:	60a3      	str	r3, [r4, #8]
 8002ae6:	2900      	cmp	r1, #0
 8002ae8:	d1ed      	bne.n	8002ac6 <_puts_r+0x52>
 8002aea:	2b00      	cmp	r3, #0
 8002aec:	da11      	bge.n	8002b12 <_puts_r+0x9e>
 8002aee:	4622      	mov	r2, r4
 8002af0:	210a      	movs	r1, #10
 8002af2:	4628      	mov	r0, r5
 8002af4:	f000 f860 	bl	8002bb8 <__swbuf_r>
 8002af8:	3001      	adds	r0, #1
 8002afa:	d0d7      	beq.n	8002aac <_puts_r+0x38>
 8002afc:	250a      	movs	r5, #10
 8002afe:	e7d7      	b.n	8002ab0 <_puts_r+0x3c>
 8002b00:	4622      	mov	r2, r4
 8002b02:	4628      	mov	r0, r5
 8002b04:	f000 f858 	bl	8002bb8 <__swbuf_r>
 8002b08:	3001      	adds	r0, #1
 8002b0a:	d1e7      	bne.n	8002adc <_puts_r+0x68>
 8002b0c:	e7ce      	b.n	8002aac <_puts_r+0x38>
 8002b0e:	3e01      	subs	r6, #1
 8002b10:	e7e4      	b.n	8002adc <_puts_r+0x68>
 8002b12:	6823      	ldr	r3, [r4, #0]
 8002b14:	1c5a      	adds	r2, r3, #1
 8002b16:	6022      	str	r2, [r4, #0]
 8002b18:	220a      	movs	r2, #10
 8002b1a:	701a      	strb	r2, [r3, #0]
 8002b1c:	e7ee      	b.n	8002afc <_puts_r+0x88>
	...

08002b20 <puts>:
 8002b20:	4b02      	ldr	r3, [pc, #8]	@ (8002b2c <puts+0xc>)
 8002b22:	4601      	mov	r1, r0
 8002b24:	6818      	ldr	r0, [r3, #0]
 8002b26:	f7ff bfa5 	b.w	8002a74 <_puts_r>
 8002b2a:	bf00      	nop
 8002b2c:	20000018 	.word	0x20000018

08002b30 <__sread>:
 8002b30:	b510      	push	{r4, lr}
 8002b32:	460c      	mov	r4, r1
 8002b34:	f9b1 100e 	ldrsh.w	r1, [r1, #14]
 8002b38:	f000 f8fa 	bl	8002d30 <_read_r>
 8002b3c:	2800      	cmp	r0, #0
 8002b3e:	bfab      	itete	ge
 8002b40:	6d63      	ldrge	r3, [r4, #84]	@ 0x54
 8002b42:	89a3      	ldrhlt	r3, [r4, #12]
 8002b44:	181b      	addge	r3, r3, r0
 8002b46:	f423 5380 	biclt.w	r3, r3, #4096	@ 0x1000
 8002b4a:	bfac      	ite	ge
 8002b4c:	6563      	strge	r3, [r4, #84]	@ 0x54
 8002b4e:	81a3      	strhlt	r3, [r4, #12]
 8002b50:	bd10      	pop	{r4, pc}

08002b52 <__swrite>:
 8002b52:	e92d 41f0 	stmdb	sp!, {r4, r5, r6, r7, r8, lr}
 8002b56:	461f      	mov	r7, r3
 8002b58:	898b      	ldrh	r3, [r1, #12]
 8002b5a:	4605      	mov	r5, r0
 8002b5c:	460c      	mov	r4, r1
 8002b5e:	05db      	lsls	r3, r3, #23
 8002b60:	4616      	mov	r6, r2
 8002b62:	d505      	bpl.n	8002b70 <__swrite+0x1e>
 8002b64:	2302      	movs	r3, #2
 8002b66:	2200      	movs	r2, #0
 8002b68:	f9b1 100e 	ldrsh.w	r1, [r1, #14]
 8002b6c:	f000 f8ce 	bl	8002d0c <_lseek_r>
 8002b70:	89a3      	ldrh	r3, [r4, #12]
 8002b72:	4632      	mov	r2, r6
 8002b74:	f9b4 100e 	ldrsh.w	r1, [r4, #14]
 8002b78:	4628      	mov	r0, r5
 8002b7a:	f423 5380 	bic.w	r3, r3, #4096	@ 0x1000
 8002b7e:	81a3      	strh	r3, [r4, #12]
 8002b80:	463b      	mov	r3, r7
 8002b82:	e8bd 41f0 	ldmia.w	sp!, {r4, r5, r6, r7, r8, lr}
 8002b86:	f000 b8e5 	b.w	8002d54 <_write_r>

08002b8a <__sseek>:
 8002b8a:	b510      	push	{r4, lr}
 8002b8c:	460c      	mov	r4, r1
 8002b8e:	f9b1 100e 	ldrsh.w	r1, [r1, #14]
 8002b92:	f000 f8bb 	bl	8002d0c <_lseek_r>
 8002b96:	1c42      	adds	r2, r0, #1
 8002b98:	f9b4 300c 	ldrsh.w	r3, [r4, #12]
 8002b9c:	bf15      	itete	ne
 8002b9e:	6560      	strne	r0, [r4, #84]	@ 0x54
 8002ba0:	f423 5380 	biceq.w	r3, r3, #4096	@ 0x1000
 8002ba4:	f443 5380 	orrne.w	r3, r3, #4096	@ 0x1000
 8002ba8:	81a3      	strheq	r3, [r4, #12]
 8002baa:	bf18      	it	ne
 8002bac:	81a3      	strhne	r3, [r4, #12]
 8002bae:	bd10      	pop	{r4, pc}

08002bb0 <__sclose>:
 8002bb0:	f9b1 100e 	ldrsh.w	r1, [r1, #14]
 8002bb4:	f000 b89a 	b.w	8002cec <_close_r>

08002bb8 <__swbuf_r>:
 8002bb8:	b5f8      	push	{r3, r4, r5, r6, r7, lr}
 8002bba:	460e      	mov	r6, r1
 8002bbc:	4614      	mov	r4, r2
 8002bbe:	4605      	mov	r5, r0
 8002bc0:	b118      	cbz	r0, 8002bca <__swbuf_r+0x12>
 8002bc2:	6a03      	ldr	r3, [r0, #32]
 8002bc4:	b90b      	cbnz	r3, 8002bca <__swbuf_r+0x12>
 8002bc6:	f7ff ff0d 	bl	80029e4 <__sinit>
 8002bca:	69a3      	ldr	r3, [r4, #24]
 8002bcc:	60a3      	str	r3, [r4, #8]
 8002bce:	89a3      	ldrh	r3, [r4, #12]
 8002bd0:	071a      	lsls	r2, r3, #28
 8002bd2:	d501      	bpl.n	8002bd8 <__swbuf_r+0x20>
 8002bd4:	6923      	ldr	r3, [r4, #16]
 8002bd6:	b943      	cbnz	r3, 8002bea <__swbuf_r+0x32>
 8002bd8:	4621      	mov	r1, r4
 8002bda:	4628      	mov	r0, r5
 8002bdc:	f000 f82a 	bl	8002c34 <__swsetup_r>
 8002be0:	b118      	cbz	r0, 8002bea <__swbuf_r+0x32>
 8002be2:	f04f 37ff 	mov.w	r7, #4294967295
 8002be6:	4638      	mov	r0, r7
 8002be8:	bdf8      	pop	{r3, r4, r5, r6, r7, pc}
 8002bea:	6823      	ldr	r3, [r4, #0]
 8002bec:	b2f6      	uxtb	r6, r6
 8002bee:	6922      	ldr	r2, [r4, #16]
 8002bf0:	4637      	mov	r7, r6
 8002bf2:	1a98      	subs	r0, r3, r2
 8002bf4:	6963      	ldr	r3, [r4, #20]
 8002bf6:	4283      	cmp	r3, r0
 8002bf8:	dc05      	bgt.n	8002c06 <__swbuf_r+0x4e>
 8002bfa:	4621      	mov	r1, r4
 8002bfc:	4628      	mov	r0, r5
 8002bfe:	f000 fd37 	bl	8003670 <_fflush_r>
 8002c02:	2800      	cmp	r0, #0
 8002c04:	d1ed      	bne.n	8002be2 <__swbuf_r+0x2a>
 8002c06:	68a3      	ldr	r3, [r4, #8]
 8002c08:	3b01      	subs	r3, #1
 8002c0a:	60a3      	str	r3, [r4, #8]
 8002c0c:	6823      	ldr	r3, [r4, #0]
 8002c0e:	1c5a      	adds	r2, r3, #1
 8002c10:	6022      	str	r2, [r4, #0]
 8002c12:	701e      	strb	r6, [r3, #0]
 8002c14:	1c43      	adds	r3, r0, #1
 8002c16:	6962      	ldr	r2, [r4, #20]
 8002c18:	429a      	cmp	r2, r3
 8002c1a:	d004      	beq.n	8002c26 <__swbuf_r+0x6e>
 8002c1c:	89a3      	ldrh	r3, [r4, #12]
 8002c1e:	07db      	lsls	r3, r3, #31
 8002c20:	d5e1      	bpl.n	8002be6 <__swbuf_r+0x2e>
 8002c22:	2e0a      	cmp	r6, #10
 8002c24:	d1df      	bne.n	8002be6 <__swbuf_r+0x2e>
 8002c26:	4621      	mov	r1, r4
 8002c28:	4628      	mov	r0, r5
 8002c2a:	f000 fd21 	bl	8003670 <_fflush_r>
 8002c2e:	2800      	cmp	r0, #0
 8002c30:	d0d9      	beq.n	8002be6 <__swbuf_r+0x2e>
 8002c32:	e7d6      	b.n	8002be2 <__swbuf_r+0x2a>

08002c34 <__swsetup_r>:
 8002c34:	b538      	push	{r3, r4, r5, lr}
 8002c36:	4b28      	ldr	r3, [pc, #160]	@ (8002cd8 <__swsetup_r+0xa4>)
 8002c38:	4605      	mov	r5, r0
 8002c3a:	460c      	mov	r4, r1
 8002c3c:	6818      	ldr	r0, [r3, #0]
 8002c3e:	b118      	cbz	r0, 8002c48 <__swsetup_r+0x14>
 8002c40:	6a03      	ldr	r3, [r0, #32]
 8002c42:	b90b      	cbnz	r3, 8002c48 <__swsetup_r+0x14>
 8002c44:	f7ff fece 	bl	80029e4 <__sinit>
 8002c48:	f9b4 300c 	ldrsh.w	r3, [r4, #12]
 8002c4c:	071a      	lsls	r2, r3, #28
 8002c4e:	d421      	bmi.n	8002c94 <__swsetup_r+0x60>
 8002c50:	06d8      	lsls	r0, r3, #27
 8002c52:	d407      	bmi.n	8002c64 <__swsetup_r+0x30>
 8002c54:	2209      	movs	r2, #9
 8002c56:	602a      	str	r2, [r5, #0]
 8002c58:	f043 0340 	orr.w	r3, r3, #64	@ 0x40
 8002c5c:	f04f 30ff 	mov.w	r0, #4294967295
 8002c60:	81a3      	strh	r3, [r4, #12]
 8002c62:	e030      	b.n	8002cc6 <__swsetup_r+0x92>
 8002c64:	0759      	lsls	r1, r3, #29
 8002c66:	d512      	bpl.n	8002c8e <__swsetup_r+0x5a>
 8002c68:	6b61      	ldr	r1, [r4, #52]	@ 0x34
 8002c6a:	b141      	cbz	r1, 8002c7e <__swsetup_r+0x4a>
 8002c6c:	f104 0344 	add.w	r3, r4, #68	@ 0x44
 8002c70:	4299      	cmp	r1, r3
 8002c72:	d002      	beq.n	8002c7a <__swsetup_r+0x46>
 8002c74:	4628      	mov	r0, r5
 8002c76:	f000 f8ad 	bl	8002dd4 <_free_r>
 8002c7a:	2300      	movs	r3, #0
 8002c7c:	6363      	str	r3, [r4, #52]	@ 0x34
 8002c7e:	2200      	movs	r2, #0
 8002c80:	f9b4 300c 	ldrsh.w	r3, [r4, #12]
 8002c84:	6062      	str	r2, [r4, #4]
 8002c86:	f023 0324 	bic.w	r3, r3, #36	@ 0x24
 8002c8a:	6922      	ldr	r2, [r4, #16]
 8002c8c:	6022      	str	r2, [r4, #0]
 8002c8e:	f043 0308 	orr.w	r3, r3, #8
 8002c92:	81a3      	strh	r3, [r4, #12]
 8002c94:	6922      	ldr	r2, [r4, #16]
 8002c96:	b93a      	cbnz	r2, 8002ca8 <__swsetup_r+0x74>
 8002c98:	059a      	lsls	r2, r3, #22
 8002c9a:	d501      	bpl.n	8002ca0 <__swsetup_r+0x6c>
 8002c9c:	0618      	lsls	r0, r3, #24
 8002c9e:	d503      	bpl.n	8002ca8 <__swsetup_r+0x74>
 8002ca0:	4621      	mov	r1, r4
 8002ca2:	4628      	mov	r0, r5
 8002ca4:	f000 fd30 	bl	8003708 <__smakebuf_r>
 8002ca8:	f9b4 300c 	ldrsh.w	r3, [r4, #12]
 8002cac:	f013 0201 	ands.w	r2, r3, #1
 8002cb0:	d00a      	beq.n	8002cc8 <__swsetup_r+0x94>
 8002cb2:	2200      	movs	r2, #0
 8002cb4:	60a2      	str	r2, [r4, #8]
 8002cb6:	6962      	ldr	r2, [r4, #20]
 8002cb8:	4252      	negs	r2, r2
 8002cba:	61a2      	str	r2, [r4, #24]
 8002cbc:	6922      	ldr	r2, [r4, #16]
 8002cbe:	b942      	cbnz	r2, 8002cd2 <__swsetup_r+0x9e>
 8002cc0:	f013 0080 	ands.w	r0, r3, #128	@ 0x80
 8002cc4:	d1c8      	bne.n	8002c58 <__swsetup_r+0x24>
 8002cc6:	bd38      	pop	{r3, r4, r5, pc}
 8002cc8:	0799      	lsls	r1, r3, #30
 8002cca:	bf58      	it	pl
 8002ccc:	6962      	ldrpl	r2, [r4, #20]
 8002cce:	60a2      	str	r2, [r4, #8]
 8002cd0:	e7f4      	b.n	8002cbc <__swsetup_r+0x88>
 8002cd2:	2000      	movs	r0, #0
 8002cd4:	e7f7      	b.n	8002cc6 <__swsetup_r+0x92>
 8002cd6:	bf00      	nop
 8002cd8:	20000018 	.word	0x20000018

08002cdc <memset>:
 8002cdc:	4402      	add	r2, r0
 8002cde:	4603      	mov	r3, r0
 8002ce0:	4293      	cmp	r3, r2
 8002ce2:	d100      	bne.n	8002ce6 <memset+0xa>
 8002ce4:	4770      	bx	lr
 8002ce6:	f803 1b01 	strb.w	r1, [r3], #1
 8002cea:	e7f9      	b.n	8002ce0 <memset+0x4>

08002cec <_close_r>:
 8002cec:	b538      	push	{r3, r4, r5, lr}
 8002cee:	2300      	movs	r3, #0
 8002cf0:	4d05      	ldr	r5, [pc, #20]	@ (8002d08 <_close_r+0x1c>)
 8002cf2:	4604      	mov	r4, r0
 8002cf4:	4608      	mov	r0, r1
 8002cf6:	602b      	str	r3, [r5, #0]
 8002cf8:	f7ff fd14 	bl	8002724 <_close>
 8002cfc:	1c43      	adds	r3, r0, #1
 8002cfe:	d102      	bne.n	8002d06 <_close_r+0x1a>
 8002d00:	682b      	ldr	r3, [r5, #0]
 8002d02:	b103      	cbz	r3, 8002d06 <_close_r+0x1a>
 8002d04:	6023      	str	r3, [r4, #0]
 8002d06:	bd38      	pop	{r3, r4, r5, pc}
 8002d08:	200001c8 	.word	0x200001c8

08002d0c <_lseek_r>:
 8002d0c:	b538      	push	{r3, r4, r5, lr}
 8002d0e:	4604      	mov	r4, r0
 8002d10:	4d06      	ldr	r5, [pc, #24]	@ (8002d2c <_lseek_r+0x20>)
 8002d12:	4608      	mov	r0, r1
 8002d14:	4611      	mov	r1, r2
 8002d16:	2200      	movs	r2, #0
 8002d18:	602a      	str	r2, [r5, #0]
 8002d1a:	461a      	mov	r2, r3
 8002d1c:	f7ff fd29 	bl	8002772 <_lseek>
 8002d20:	1c43      	adds	r3, r0, #1
 8002d22:	d102      	bne.n	8002d2a <_lseek_r+0x1e>
 8002d24:	682b      	ldr	r3, [r5, #0]
 8002d26:	b103      	cbz	r3, 8002d2a <_lseek_r+0x1e>
 8002d28:	6023      	str	r3, [r4, #0]
 8002d2a:	bd38      	pop	{r3, r4, r5, pc}
 8002d2c:	200001c8 	.word	0x200001c8

08002d30 <_read_r>:
 8002d30:	b538      	push	{r3, r4, r5, lr}
 8002d32:	4604      	mov	r4, r0
 8002d34:	4d06      	ldr	r5, [pc, #24]	@ (8002d50 <_read_r+0x20>)
 8002d36:	4608      	mov	r0, r1
 8002d38:	4611      	mov	r1, r2
 8002d3a:	2200      	movs	r2, #0
 8002d3c:	602a      	str	r2, [r5, #0]
 8002d3e:	461a      	mov	r2, r3
 8002d40:	f7ff fcd3 	bl	80026ea <_read>
 8002d44:	1c43      	adds	r3, r0, #1
 8002d46:	d102      	bne.n	8002d4e <_read_r+0x1e>
 8002d48:	682b      	ldr	r3, [r5, #0]
 8002d4a:	b103      	cbz	r3, 8002d4e <_read_r+0x1e>
 8002d4c:	6023      	str	r3, [r4, #0]
 8002d4e:	bd38      	pop	{r3, r4, r5, pc}
 8002d50:	200001c8 	.word	0x200001c8

08002d54 <_write_r>:
 8002d54:	b538      	push	{r3, r4, r5, lr}
 8002d56:	4604      	mov	r4, r0
 8002d58:	4d06      	ldr	r5, [pc, #24]	@ (8002d74 <_write_r+0x20>)
 8002d5a:	4608      	mov	r0, r1
 8002d5c:	4611      	mov	r1, r2
 8002d5e:	2200      	movs	r2, #0
 8002d60:	602a      	str	r2, [r5, #0]
 8002d62:	461a      	mov	r2, r3
 8002d64:	f7ff fb59 	bl	800241a <_write>
 8002d68:	1c43      	adds	r3, r0, #1
 8002d6a:	d102      	bne.n	8002d72 <_write_r+0x1e>
 8002d6c:	682b      	ldr	r3, [r5, #0]
 8002d6e:	b103      	cbz	r3, 8002d72 <_write_r+0x1e>
 8002d70:	6023      	str	r3, [r4, #0]
 8002d72:	bd38      	pop	{r3, r4, r5, pc}
 8002d74:	200001c8 	.word	0x200001c8

08002d78 <__errno>:
 8002d78:	4b01      	ldr	r3, [pc, #4]	@ (8002d80 <__errno+0x8>)
 8002d7a:	6818      	ldr	r0, [r3, #0]
 8002d7c:	4770      	bx	lr
 8002d7e:	bf00      	nop
 8002d80:	20000018 	.word	0x20000018

08002d84 <__libc_init_array>:
 8002d84:	b570      	push	{r4, r5, r6, lr}
 8002d86:	4b0d      	ldr	r3, [pc, #52]	@ (8002dbc <__libc_init_array+0x38>)
 8002d88:	2600      	movs	r6, #0
 8002d8a:	4d0d      	ldr	r5, [pc, #52]	@ (8002dc0 <__libc_init_array+0x3c>)
 8002d8c:	1b5b      	subs	r3, r3, r5
 8002d8e:	109c      	asrs	r4, r3, #2
 8002d90:	42a6      	cmp	r6, r4
 8002d92:	d109      	bne.n	8002da8 <__libc_init_array+0x24>
 8002d94:	4d0b      	ldr	r5, [pc, #44]	@ (8002dc4 <__libc_init_array+0x40>)
 8002d96:	f000 fd31 	bl	80037fc <_init>
 8002d9a:	4b0b      	ldr	r3, [pc, #44]	@ (8002dc8 <__libc_init_array+0x44>)
 8002d9c:	2600      	movs	r6, #0
 8002d9e:	1b5b      	subs	r3, r3, r5
 8002da0:	109c      	asrs	r4, r3, #2
 8002da2:	42a6      	cmp	r6, r4
 8002da4:	d105      	bne.n	8002db2 <__libc_init_array+0x2e>
 8002da6:	bd70      	pop	{r4, r5, r6, pc}
 8002da8:	f855 3b04 	ldr.w	r3, [r5], #4
 8002dac:	3601      	adds	r6, #1
 8002dae:	4798      	blx	r3
 8002db0:	e7ee      	b.n	8002d90 <__libc_init_array+0xc>
 8002db2:	f855 3b04 	ldr.w	r3, [r5], #4
 8002db6:	3601      	adds	r6, #1
 8002db8:	4798      	blx	r3
 8002dba:	e7f2      	b.n	8002da2 <__libc_init_array+0x1e>
 8002dbc:	08003b93 	.word	0x08003b93
 8002dc0:	08003b93 	.word	0x08003b93
 8002dc4:	08003b94 	.word	0x08003b94
 8002dc8:	08003b98 	.word	0x08003b98

08002dcc <__retarget_lock_init_recursive>:
 8002dcc:	4770      	bx	lr

08002dce <__retarget_lock_acquire_recursive>:
 8002dce:	4770      	bx	lr

08002dd0 <__retarget_lock_release_recursive>:
 8002dd0:	4770      	bx	lr
	...

08002dd4 <_free_r>:
 8002dd4:	b538      	push	{r3, r4, r5, lr}
 8002dd6:	4605      	mov	r5, r0
 8002dd8:	2900      	cmp	r1, #0
 8002dda:	d041      	beq.n	8002e60 <_free_r+0x8c>
 8002ddc:	f851 3c04 	ldr.w	r3, [r1, #-4]
 8002de0:	1f0c      	subs	r4, r1, #4
 8002de2:	2b00      	cmp	r3, #0
 8002de4:	bfb8      	it	lt
 8002de6:	18e4      	addlt	r4, r4, r3
 8002de8:	f000 f8e0 	bl	8002fac <__malloc_lock>
 8002dec:	4a1d      	ldr	r2, [pc, #116]	@ (8002e64 <_free_r+0x90>)
 8002dee:	6813      	ldr	r3, [r2, #0]
 8002df0:	b933      	cbnz	r3, 8002e00 <_free_r+0x2c>
 8002df2:	6063      	str	r3, [r4, #4]
 8002df4:	6014      	str	r4, [r2, #0]
 8002df6:	4628      	mov	r0, r5
 8002df8:	e8bd 4038 	ldmia.w	sp!, {r3, r4, r5, lr}
 8002dfc:	f000 b8dc 	b.w	8002fb8 <__malloc_unlock>
 8002e00:	42a3      	cmp	r3, r4
 8002e02:	d908      	bls.n	8002e16 <_free_r+0x42>
 8002e04:	6820      	ldr	r0, [r4, #0]
 8002e06:	1821      	adds	r1, r4, r0
 8002e08:	428b      	cmp	r3, r1
 8002e0a:	bf01      	itttt	eq
 8002e0c:	6819      	ldreq	r1, [r3, #0]
 8002e0e:	685b      	ldreq	r3, [r3, #4]
 8002e10:	1809      	addeq	r1, r1, r0
 8002e12:	6021      	streq	r1, [r4, #0]
 8002e14:	e7ed      	b.n	8002df2 <_free_r+0x1e>
 8002e16:	461a      	mov	r2, r3
 8002e18:	685b      	ldr	r3, [r3, #4]
 8002e1a:	b10b      	cbz	r3, 8002e20 <_free_r+0x4c>
 8002e1c:	42a3      	cmp	r3, r4
 8002e1e:	d9fa      	bls.n	8002e16 <_free_r+0x42>
 8002e20:	6811      	ldr	r1, [r2, #0]
 8002e22:	1850      	adds	r0, r2, r1
 8002e24:	42a0      	cmp	r0, r4
 8002e26:	d10b      	bne.n	8002e40 <_free_r+0x6c>
 8002e28:	6820      	ldr	r0, [r4, #0]
 8002e2a:	4401      	add	r1, r0
 8002e2c:	1850      	adds	r0, r2, r1
 8002e2e:	6011      	str	r1, [r2, #0]
 8002e30:	4283      	cmp	r3, r0
 8002e32:	d1e0      	bne.n	8002df6 <_free_r+0x22>
 8002e34:	6818      	ldr	r0, [r3, #0]
 8002e36:	685b      	ldr	r3, [r3, #4]
 8002e38:	4408      	add	r0, r1
 8002e3a:	6053      	str	r3, [r2, #4]
 8002e3c:	6010      	str	r0, [r2, #0]
 8002e3e:	e7da      	b.n	8002df6 <_free_r+0x22>
 8002e40:	d902      	bls.n	8002e48 <_free_r+0x74>
 8002e42:	230c      	movs	r3, #12
 8002e44:	602b      	str	r3, [r5, #0]
 8002e46:	e7d6      	b.n	8002df6 <_free_r+0x22>
 8002e48:	6820      	ldr	r0, [r4, #0]
 8002e4a:	1821      	adds	r1, r4, r0
 8002e4c:	428b      	cmp	r3, r1
 8002e4e:	bf02      	ittt	eq
 8002e50:	6819      	ldreq	r1, [r3, #0]
 8002e52:	685b      	ldreq	r3, [r3, #4]
 8002e54:	1809      	addeq	r1, r1, r0
 8002e56:	6063      	str	r3, [r4, #4]
 8002e58:	bf08      	it	eq
 8002e5a:	6021      	streq	r1, [r4, #0]
 8002e5c:	6054      	str	r4, [r2, #4]
 8002e5e:	e7ca      	b.n	8002df6 <_free_r+0x22>
 8002e60:	bd38      	pop	{r3, r4, r5, pc}
 8002e62:	bf00      	nop
 8002e64:	200001d4 	.word	0x200001d4

08002e68 <sbrk_aligned>:
 8002e68:	b570      	push	{r4, r5, r6, lr}
 8002e6a:	4e0f      	ldr	r6, [pc, #60]	@ (8002ea8 <sbrk_aligned+0x40>)
 8002e6c:	460c      	mov	r4, r1
 8002e6e:	4605      	mov	r5, r0
 8002e70:	6831      	ldr	r1, [r6, #0]
 8002e72:	b911      	cbnz	r1, 8002e7a <sbrk_aligned+0x12>
 8002e74:	f000 fca4 	bl	80037c0 <_sbrk_r>
 8002e78:	6030      	str	r0, [r6, #0]
 8002e7a:	4621      	mov	r1, r4
 8002e7c:	4628      	mov	r0, r5
 8002e7e:	f000 fc9f 	bl	80037c0 <_sbrk_r>
 8002e82:	1c43      	adds	r3, r0, #1
 8002e84:	d103      	bne.n	8002e8e <sbrk_aligned+0x26>
 8002e86:	f04f 34ff 	mov.w	r4, #4294967295
 8002e8a:	4620      	mov	r0, r4
 8002e8c:	bd70      	pop	{r4, r5, r6, pc}
 8002e8e:	1cc4      	adds	r4, r0, #3
 8002e90:	f024 0403 	bic.w	r4, r4, #3
 8002e94:	42a0      	cmp	r0, r4
 8002e96:	d0f8      	beq.n	8002e8a <sbrk_aligned+0x22>
 8002e98:	1a21      	subs	r1, r4, r0
 8002e9a:	4628      	mov	r0, r5
 8002e9c:	f000 fc90 	bl	80037c0 <_sbrk_r>
 8002ea0:	3001      	adds	r0, #1
 8002ea2:	d1f2      	bne.n	8002e8a <sbrk_aligned+0x22>
 8002ea4:	e7ef      	b.n	8002e86 <sbrk_aligned+0x1e>
 8002ea6:	bf00      	nop
 8002ea8:	200001d0 	.word	0x200001d0

08002eac <_malloc_r>:
 8002eac:	e92d 43f8 	stmdb	sp!, {r3, r4, r5, r6, r7, r8, r9, lr}
 8002eb0:	1ccd      	adds	r5, r1, #3
 8002eb2:	4606      	mov	r6, r0
 8002eb4:	f025 0503 	bic.w	r5, r5, #3
 8002eb8:	3508      	adds	r5, #8
 8002eba:	2d0c      	cmp	r5, #12
 8002ebc:	bf38      	it	cc
 8002ebe:	250c      	movcc	r5, #12
 8002ec0:	2d00      	cmp	r5, #0
 8002ec2:	db01      	blt.n	8002ec8 <_malloc_r+0x1c>
 8002ec4:	42a9      	cmp	r1, r5
 8002ec6:	d904      	bls.n	8002ed2 <_malloc_r+0x26>
 8002ec8:	230c      	movs	r3, #12
 8002eca:	6033      	str	r3, [r6, #0]
 8002ecc:	2000      	movs	r0, #0
 8002ece:	e8bd 83f8 	ldmia.w	sp!, {r3, r4, r5, r6, r7, r8, r9, pc}
 8002ed2:	f8df 80d4 	ldr.w	r8, [pc, #212]	@ 8002fa8 <_malloc_r+0xfc>
 8002ed6:	f000 f869 	bl	8002fac <__malloc_lock>
 8002eda:	f8d8 3000 	ldr.w	r3, [r8]
 8002ede:	461c      	mov	r4, r3
 8002ee0:	bb44      	cbnz	r4, 8002f34 <_malloc_r+0x88>
 8002ee2:	4629      	mov	r1, r5
 8002ee4:	4630      	mov	r0, r6
 8002ee6:	f7ff ffbf 	bl	8002e68 <sbrk_aligned>
 8002eea:	1c43      	adds	r3, r0, #1
 8002eec:	4604      	mov	r4, r0
 8002eee:	d158      	bne.n	8002fa2 <_malloc_r+0xf6>
 8002ef0:	f8d8 4000 	ldr.w	r4, [r8]
 8002ef4:	4627      	mov	r7, r4
 8002ef6:	2f00      	cmp	r7, #0
 8002ef8:	d143      	bne.n	8002f82 <_malloc_r+0xd6>
 8002efa:	2c00      	cmp	r4, #0
 8002efc:	d04b      	beq.n	8002f96 <_malloc_r+0xea>
 8002efe:	6823      	ldr	r3, [r4, #0]
 8002f00:	4639      	mov	r1, r7
 8002f02:	4630      	mov	r0, r6
 8002f04:	eb04 0903 	add.w	r9, r4, r3
 8002f08:	f000 fc5a 	bl	80037c0 <_sbrk_r>
 8002f0c:	4581      	cmp	r9, r0
 8002f0e:	d142      	bne.n	8002f96 <_malloc_r+0xea>
 8002f10:	6821      	ldr	r1, [r4, #0]
 8002f12:	4630      	mov	r0, r6
 8002f14:	1a6d      	subs	r5, r5, r1
 8002f16:	4629      	mov	r1, r5
 8002f18:	f7ff ffa6 	bl	8002e68 <sbrk_aligned>
 8002f1c:	3001      	adds	r0, #1
 8002f1e:	d03a      	beq.n	8002f96 <_malloc_r+0xea>
 8002f20:	6823      	ldr	r3, [r4, #0]
 8002f22:	442b      	add	r3, r5
 8002f24:	6023      	str	r3, [r4, #0]
 8002f26:	f8d8 3000 	ldr.w	r3, [r8]
 8002f2a:	685a      	ldr	r2, [r3, #4]
 8002f2c:	bb62      	cbnz	r2, 8002f88 <_malloc_r+0xdc>
 8002f2e:	f8c8 7000 	str.w	r7, [r8]
 8002f32:	e00f      	b.n	8002f54 <_malloc_r+0xa8>
 8002f34:	6822      	ldr	r2, [r4, #0]
 8002f36:	1b52      	subs	r2, r2, r5
 8002f38:	d420      	bmi.n	8002f7c <_malloc_r+0xd0>
 8002f3a:	2a0b      	cmp	r2, #11
 8002f3c:	d917      	bls.n	8002f6e <_malloc_r+0xc2>
 8002f3e:	1961      	adds	r1, r4, r5
 8002f40:	42a3      	cmp	r3, r4
 8002f42:	6025      	str	r5, [r4, #0]
 8002f44:	bf18      	it	ne
 8002f46:	6059      	strne	r1, [r3, #4]
 8002f48:	6863      	ldr	r3, [r4, #4]
 8002f4a:	bf08      	it	eq
 8002f4c:	f8c8 1000 	streq.w	r1, [r8]
 8002f50:	5162      	str	r2, [r4, r5]
 8002f52:	604b      	str	r3, [r1, #4]
 8002f54:	4630      	mov	r0, r6
 8002f56:	f000 f82f 	bl	8002fb8 <__malloc_unlock>
 8002f5a:	f104 000b 	add.w	r0, r4, #11
 8002f5e:	1d23      	adds	r3, r4, #4
 8002f60:	f020 0007 	bic.w	r0, r0, #7
 8002f64:	1ac2      	subs	r2, r0, r3
 8002f66:	bf1c      	itt	ne
 8002f68:	1a1b      	subne	r3, r3, r0
 8002f6a:	50a3      	strne	r3, [r4, r2]
 8002f6c:	e7af      	b.n	8002ece <_malloc_r+0x22>
 8002f6e:	6862      	ldr	r2, [r4, #4]
 8002f70:	42a3      	cmp	r3, r4
 8002f72:	bf0c      	ite	eq
 8002f74:	f8c8 2000 	streq.w	r2, [r8]
 8002f78:	605a      	strne	r2, [r3, #4]
 8002f7a:	e7eb      	b.n	8002f54 <_malloc_r+0xa8>
 8002f7c:	4623      	mov	r3, r4
 8002f7e:	6864      	ldr	r4, [r4, #4]
 8002f80:	e7ae      	b.n	8002ee0 <_malloc_r+0x34>
 8002f82:	463c      	mov	r4, r7
 8002f84:	687f      	ldr	r7, [r7, #4]
 8002f86:	e7b6      	b.n	8002ef6 <_malloc_r+0x4a>
 8002f88:	461a      	mov	r2, r3
 8002f8a:	685b      	ldr	r3, [r3, #4]
 8002f8c:	42a3      	cmp	r3, r4
 8002f8e:	d1fb      	bne.n	8002f88 <_malloc_r+0xdc>
 8002f90:	2300      	movs	r3, #0
 8002f92:	6053      	str	r3, [r2, #4]
 8002f94:	e7de      	b.n	8002f54 <_malloc_r+0xa8>
 8002f96:	230c      	movs	r3, #12
 8002f98:	4630      	mov	r0, r6
 8002f9a:	6033      	str	r3, [r6, #0]
 8002f9c:	f000 f80c 	bl	8002fb8 <__malloc_unlock>
 8002fa0:	e794      	b.n	8002ecc <_malloc_r+0x20>
 8002fa2:	6005      	str	r5, [r0, #0]
 8002fa4:	e7d6      	b.n	8002f54 <_malloc_r+0xa8>
 8002fa6:	bf00      	nop
 8002fa8:	200001d4 	.word	0x200001d4

08002fac <__malloc_lock>:
 8002fac:	4801      	ldr	r0, [pc, #4]	@ (8002fb4 <__malloc_lock+0x8>)
 8002fae:	f7ff bf0e 	b.w	8002dce <__retarget_lock_acquire_recursive>
 8002fb2:	bf00      	nop
 8002fb4:	200001cc 	.word	0x200001cc

08002fb8 <__malloc_unlock>:
 8002fb8:	4801      	ldr	r0, [pc, #4]	@ (8002fc0 <__malloc_unlock+0x8>)
 8002fba:	f7ff bf09 	b.w	8002dd0 <__retarget_lock_release_recursive>
 8002fbe:	bf00      	nop
 8002fc0:	200001cc 	.word	0x200001cc

08002fc4 <__sfputc_r>:
 8002fc4:	6893      	ldr	r3, [r2, #8]
 8002fc6:	3b01      	subs	r3, #1
 8002fc8:	2b00      	cmp	r3, #0
 8002fca:	b410      	push	{r4}
 8002fcc:	6093      	str	r3, [r2, #8]
 8002fce:	da08      	bge.n	8002fe2 <__sfputc_r+0x1e>
 8002fd0:	6994      	ldr	r4, [r2, #24]
 8002fd2:	42a3      	cmp	r3, r4
 8002fd4:	db01      	blt.n	8002fda <__sfputc_r+0x16>
 8002fd6:	290a      	cmp	r1, #10
 8002fd8:	d103      	bne.n	8002fe2 <__sfputc_r+0x1e>
 8002fda:	f85d 4b04 	ldr.w	r4, [sp], #4
 8002fde:	f7ff bdeb 	b.w	8002bb8 <__swbuf_r>
 8002fe2:	6813      	ldr	r3, [r2, #0]
 8002fe4:	1c58      	adds	r0, r3, #1
 8002fe6:	6010      	str	r0, [r2, #0]
 8002fe8:	4608      	mov	r0, r1
 8002fea:	7019      	strb	r1, [r3, #0]
 8002fec:	f85d 4b04 	ldr.w	r4, [sp], #4
 8002ff0:	4770      	bx	lr

08002ff2 <__sfputs_r>:
 8002ff2:	b5f8      	push	{r3, r4, r5, r6, r7, lr}
 8002ff4:	4606      	mov	r6, r0
 8002ff6:	460f      	mov	r7, r1
 8002ff8:	4614      	mov	r4, r2
 8002ffa:	18d5      	adds	r5, r2, r3
 8002ffc:	42ac      	cmp	r4, r5
 8002ffe:	d101      	bne.n	8003004 <__sfputs_r+0x12>
 8003000:	2000      	movs	r0, #0
 8003002:	e007      	b.n	8003014 <__sfputs_r+0x22>
 8003004:	463a      	mov	r2, r7
 8003006:	f814 1b01 	ldrb.w	r1, [r4], #1
 800300a:	4630      	mov	r0, r6
 800300c:	f7ff ffda 	bl	8002fc4 <__sfputc_r>
 8003010:	1c43      	adds	r3, r0, #1
 8003012:	d1f3      	bne.n	8002ffc <__sfputs_r+0xa>
 8003014:	bdf8      	pop	{r3, r4, r5, r6, r7, pc}
	...

08003018 <_vfiprintf_r>:
 8003018:	e92d 47f0 	stmdb	sp!, {r4, r5, r6, r7, r8, r9, sl, lr}
 800301c:	460d      	mov	r5, r1
 800301e:	b09c      	sub	sp, #112	@ 0x70
 8003020:	4614      	mov	r4, r2
 8003022:	461f      	mov	r7, r3
 8003024:	4606      	mov	r6, r0
 8003026:	b118      	cbz	r0, 8003030 <_vfiprintf_r+0x18>
 8003028:	6a03      	ldr	r3, [r0, #32]
 800302a:	b90b      	cbnz	r3, 8003030 <_vfiprintf_r+0x18>
 800302c:	f7ff fcda 	bl	80029e4 <__sinit>
 8003030:	6e6b      	ldr	r3, [r5, #100]	@ 0x64
 8003032:	07d9      	lsls	r1, r3, #31
 8003034:	d405      	bmi.n	8003042 <_vfiprintf_r+0x2a>
 8003036:	89ab      	ldrh	r3, [r5, #12]
 8003038:	059a      	lsls	r2, r3, #22
 800303a:	d402      	bmi.n	8003042 <_vfiprintf_r+0x2a>
 800303c:	6da8      	ldr	r0, [r5, #88]	@ 0x58
 800303e:	f7ff fec6 	bl	8002dce <__retarget_lock_acquire_recursive>
 8003042:	89ab      	ldrh	r3, [r5, #12]
 8003044:	071b      	lsls	r3, r3, #28
 8003046:	d501      	bpl.n	800304c <_vfiprintf_r+0x34>
 8003048:	692b      	ldr	r3, [r5, #16]
 800304a:	b99b      	cbnz	r3, 8003074 <_vfiprintf_r+0x5c>
 800304c:	4629      	mov	r1, r5
 800304e:	4630      	mov	r0, r6
 8003050:	f7ff fdf0 	bl	8002c34 <__swsetup_r>
 8003054:	b170      	cbz	r0, 8003074 <_vfiprintf_r+0x5c>
 8003056:	6e6b      	ldr	r3, [r5, #100]	@ 0x64
 8003058:	07dc      	lsls	r4, r3, #31
 800305a:	d504      	bpl.n	8003066 <_vfiprintf_r+0x4e>
 800305c:	f04f 30ff 	mov.w	r0, #4294967295
 8003060:	b01c      	add	sp, #112	@ 0x70
 8003062:	e8bd 87f0 	ldmia.w	sp!, {r4, r5, r6, r7, r8, r9, sl, pc}
 8003066:	89ab      	ldrh	r3, [r5, #12]
 8003068:	0598      	lsls	r0, r3, #22
 800306a:	d4f7      	bmi.n	800305c <_vfiprintf_r+0x44>
 800306c:	6da8      	ldr	r0, [r5, #88]	@ 0x58
 800306e:	f7ff feaf 	bl	8002dd0 <__retarget_lock_release_recursive>
 8003072:	e7f3      	b.n	800305c <_vfiprintf_r+0x44>
 8003074:	2300      	movs	r3, #0
 8003076:	9703      	str	r7, [sp, #12]
 8003078:	f04f 0801 	mov.w	r8, #1
 800307c:	4f6b      	ldr	r7, [pc, #428]	@ (800322c <_vfiprintf_r+0x214>)
 800307e:	9309      	str	r3, [sp, #36]	@ 0x24
 8003080:	2320      	movs	r3, #32
 8003082:	f88d 3029 	strb.w	r3, [sp, #41]	@ 0x29
 8003086:	2330      	movs	r3, #48	@ 0x30
 8003088:	f88d 302a 	strb.w	r3, [sp, #42]	@ 0x2a
 800308c:	4623      	mov	r3, r4
 800308e:	4699      	mov	r9, r3
 8003090:	f813 2b01 	ldrb.w	r2, [r3], #1
 8003094:	b10a      	cbz	r2, 800309a <_vfiprintf_r+0x82>
 8003096:	2a25      	cmp	r2, #37	@ 0x25
 8003098:	d1f9      	bne.n	800308e <_vfiprintf_r+0x76>
 800309a:	ebb9 0a04 	subs.w	sl, r9, r4
 800309e:	d00b      	beq.n	80030b8 <_vfiprintf_r+0xa0>
 80030a0:	4653      	mov	r3, sl
 80030a2:	4622      	mov	r2, r4
 80030a4:	4629      	mov	r1, r5
 80030a6:	4630      	mov	r0, r6
 80030a8:	f7ff ffa3 	bl	8002ff2 <__sfputs_r>
 80030ac:	3001      	adds	r0, #1
 80030ae:	f000 80a4 	beq.w	80031fa <_vfiprintf_r+0x1e2>
 80030b2:	9a09      	ldr	r2, [sp, #36]	@ 0x24
 80030b4:	4452      	add	r2, sl
 80030b6:	9209      	str	r2, [sp, #36]	@ 0x24
 80030b8:	f899 3000 	ldrb.w	r3, [r9]
 80030bc:	2b00      	cmp	r3, #0
 80030be:	f000 809c 	beq.w	80031fa <_vfiprintf_r+0x1e2>
 80030c2:	2300      	movs	r3, #0
 80030c4:	f04f 32ff 	mov.w	r2, #4294967295
 80030c8:	f109 0901 	add.w	r9, r9, #1
 80030cc:	9304      	str	r3, [sp, #16]
 80030ce:	9307      	str	r3, [sp, #28]
 80030d0:	f88d 3053 	strb.w	r3, [sp, #83]	@ 0x53
 80030d4:	931a      	str	r3, [sp, #104]	@ 0x68
 80030d6:	e9cd 2305 	strd	r2, r3, [sp, #20]
 80030da:	464c      	mov	r4, r9
 80030dc:	2205      	movs	r2, #5
 80030de:	4853      	ldr	r0, [pc, #332]	@ (800322c <_vfiprintf_r+0x214>)
 80030e0:	f814 1b01 	ldrb.w	r1, [r4], #1
 80030e4:	f000 fb7c 	bl	80037e0 <memchr>
 80030e8:	9b04      	ldr	r3, [sp, #16]
 80030ea:	b9d0      	cbnz	r0, 8003122 <_vfiprintf_r+0x10a>
 80030ec:	06d9      	lsls	r1, r3, #27
 80030ee:	bf44      	itt	mi
 80030f0:	2220      	movmi	r2, #32
 80030f2:	f88d 2053 	strbmi.w	r2, [sp, #83]	@ 0x53
 80030f6:	071a      	lsls	r2, r3, #28
 80030f8:	bf44      	itt	mi
 80030fa:	222b      	movmi	r2, #43	@ 0x2b
 80030fc:	f88d 2053 	strbmi.w	r2, [sp, #83]	@ 0x53
 8003100:	f899 2000 	ldrb.w	r2, [r9]
 8003104:	2a2a      	cmp	r2, #42	@ 0x2a
 8003106:	d013      	beq.n	8003130 <_vfiprintf_r+0x118>
 8003108:	9a07      	ldr	r2, [sp, #28]
 800310a:	464c      	mov	r4, r9
 800310c:	2000      	movs	r0, #0
 800310e:	f04f 0c0a 	mov.w	ip, #10
 8003112:	4621      	mov	r1, r4
 8003114:	f811 3b01 	ldrb.w	r3, [r1], #1
 8003118:	3b30      	subs	r3, #48	@ 0x30
 800311a:	2b09      	cmp	r3, #9
 800311c:	d949      	bls.n	80031b2 <_vfiprintf_r+0x19a>
 800311e:	b968      	cbnz	r0, 800313c <_vfiprintf_r+0x124>
 8003120:	e013      	b.n	800314a <_vfiprintf_r+0x132>
 8003122:	1bc0      	subs	r0, r0, r7
 8003124:	46a1      	mov	r9, r4
 8003126:	fa08 f000 	lsl.w	r0, r8, r0
 800312a:	4318      	orrs	r0, r3
 800312c:	9004      	str	r0, [sp, #16]
 800312e:	e7d4      	b.n	80030da <_vfiprintf_r+0xc2>
 8003130:	9a03      	ldr	r2, [sp, #12]
 8003132:	1d11      	adds	r1, r2, #4
 8003134:	6812      	ldr	r2, [r2, #0]
 8003136:	2a00      	cmp	r2, #0
 8003138:	9103      	str	r1, [sp, #12]
 800313a:	db01      	blt.n	8003140 <_vfiprintf_r+0x128>
 800313c:	9207      	str	r2, [sp, #28]
 800313e:	e004      	b.n	800314a <_vfiprintf_r+0x132>
 8003140:	4252      	negs	r2, r2
 8003142:	f043 0302 	orr.w	r3, r3, #2
 8003146:	9207      	str	r2, [sp, #28]
 8003148:	9304      	str	r3, [sp, #16]
 800314a:	7823      	ldrb	r3, [r4, #0]
 800314c:	2b2e      	cmp	r3, #46	@ 0x2e
 800314e:	d10a      	bne.n	8003166 <_vfiprintf_r+0x14e>
 8003150:	7863      	ldrb	r3, [r4, #1]
 8003152:	2b2a      	cmp	r3, #42	@ 0x2a
 8003154:	d132      	bne.n	80031bc <_vfiprintf_r+0x1a4>
 8003156:	9b03      	ldr	r3, [sp, #12]
 8003158:	3402      	adds	r4, #2
 800315a:	1d1a      	adds	r2, r3, #4
 800315c:	681b      	ldr	r3, [r3, #0]
 800315e:	ea43 73e3 	orr.w	r3, r3, r3, asr #31
 8003162:	9203      	str	r2, [sp, #12]
 8003164:	9305      	str	r3, [sp, #20]
 8003166:	f8df 90d4 	ldr.w	r9, [pc, #212]	@ 800323c <_vfiprintf_r+0x224>
 800316a:	2203      	movs	r2, #3
 800316c:	7821      	ldrb	r1, [r4, #0]
 800316e:	4648      	mov	r0, r9
 8003170:	f000 fb36 	bl	80037e0 <memchr>
 8003174:	b138      	cbz	r0, 8003186 <_vfiprintf_r+0x16e>
 8003176:	eba0 0009 	sub.w	r0, r0, r9
 800317a:	2240      	movs	r2, #64	@ 0x40
 800317c:	9b04      	ldr	r3, [sp, #16]
 800317e:	3401      	adds	r4, #1
 8003180:	4082      	lsls	r2, r0
 8003182:	4313      	orrs	r3, r2
 8003184:	9304      	str	r3, [sp, #16]
 8003186:	f814 1b01 	ldrb.w	r1, [r4], #1
 800318a:	2206      	movs	r2, #6
 800318c:	4828      	ldr	r0, [pc, #160]	@ (8003230 <_vfiprintf_r+0x218>)
 800318e:	f88d 1028 	strb.w	r1, [sp, #40]	@ 0x28
 8003192:	f000 fb25 	bl	80037e0 <memchr>
 8003196:	2800      	cmp	r0, #0
 8003198:	d03e      	beq.n	8003218 <_vfiprintf_r+0x200>
 800319a:	4826      	ldr	r0, [pc, #152]	@ (8003234 <_vfiprintf_r+0x21c>)
 800319c:	bb18      	cbnz	r0, 80031e6 <_vfiprintf_r+0x1ce>
 800319e:	9b03      	ldr	r3, [sp, #12]
 80031a0:	3307      	adds	r3, #7
 80031a2:	f023 0307 	bic.w	r3, r3, #7
 80031a6:	3308      	adds	r3, #8
 80031a8:	9303      	str	r3, [sp, #12]
 80031aa:	9b09      	ldr	r3, [sp, #36]	@ 0x24
 80031ac:	4403      	add	r3, r0
 80031ae:	9309      	str	r3, [sp, #36]	@ 0x24
 80031b0:	e76c      	b.n	800308c <_vfiprintf_r+0x74>
 80031b2:	fb0c 3202 	mla	r2, ip, r2, r3
 80031b6:	460c      	mov	r4, r1
 80031b8:	2001      	movs	r0, #1
 80031ba:	e7aa      	b.n	8003112 <_vfiprintf_r+0xfa>
 80031bc:	2300      	movs	r3, #0
 80031be:	3401      	adds	r4, #1
 80031c0:	f04f 0c0a 	mov.w	ip, #10
 80031c4:	4619      	mov	r1, r3
 80031c6:	9305      	str	r3, [sp, #20]
 80031c8:	4620      	mov	r0, r4
 80031ca:	f810 2b01 	ldrb.w	r2, [r0], #1
 80031ce:	3a30      	subs	r2, #48	@ 0x30
 80031d0:	2a09      	cmp	r2, #9
 80031d2:	d903      	bls.n	80031dc <_vfiprintf_r+0x1c4>
 80031d4:	2b00      	cmp	r3, #0
 80031d6:	d0c6      	beq.n	8003166 <_vfiprintf_r+0x14e>
 80031d8:	9105      	str	r1, [sp, #20]
 80031da:	e7c4      	b.n	8003166 <_vfiprintf_r+0x14e>
 80031dc:	fb0c 2101 	mla	r1, ip, r1, r2
 80031e0:	4604      	mov	r4, r0
 80031e2:	2301      	movs	r3, #1
 80031e4:	e7f0      	b.n	80031c8 <_vfiprintf_r+0x1b0>
 80031e6:	ab03      	add	r3, sp, #12
 80031e8:	462a      	mov	r2, r5
 80031ea:	a904      	add	r1, sp, #16
 80031ec:	4630      	mov	r0, r6
 80031ee:	9300      	str	r3, [sp, #0]
 80031f0:	4b11      	ldr	r3, [pc, #68]	@ (8003238 <_vfiprintf_r+0x220>)
 80031f2:	f3af 8000 	nop.w
 80031f6:	1c43      	adds	r3, r0, #1
 80031f8:	d1d7      	bne.n	80031aa <_vfiprintf_r+0x192>
 80031fa:	6e6b      	ldr	r3, [r5, #100]	@ 0x64
 80031fc:	07d9      	lsls	r1, r3, #31
 80031fe:	d405      	bmi.n	800320c <_vfiprintf_r+0x1f4>
 8003200:	89ab      	ldrh	r3, [r5, #12]
 8003202:	059a      	lsls	r2, r3, #22
 8003204:	d402      	bmi.n	800320c <_vfiprintf_r+0x1f4>
 8003206:	6da8      	ldr	r0, [r5, #88]	@ 0x58
 8003208:	f7ff fde2 	bl	8002dd0 <__retarget_lock_release_recursive>
 800320c:	89ab      	ldrh	r3, [r5, #12]
 800320e:	065b      	lsls	r3, r3, #25
 8003210:	f53f af24 	bmi.w	800305c <_vfiprintf_r+0x44>
 8003214:	9809      	ldr	r0, [sp, #36]	@ 0x24
 8003216:	e723      	b.n	8003060 <_vfiprintf_r+0x48>
 8003218:	ab03      	add	r3, sp, #12
 800321a:	462a      	mov	r2, r5
 800321c:	a904      	add	r1, sp, #16
 800321e:	4630      	mov	r0, r6
 8003220:	9300      	str	r3, [sp, #0]
 8003222:	4b05      	ldr	r3, [pc, #20]	@ (8003238 <_vfiprintf_r+0x220>)
 8003224:	f000 f87e 	bl	8003324 <_printf_i>
 8003228:	e7e5      	b.n	80031f6 <_vfiprintf_r+0x1de>
 800322a:	bf00      	nop
 800322c:	08003b60 	.word	0x08003b60
 8003230:	08003b6a 	.word	0x08003b6a
 8003234:	00000000 	.word	0x00000000
 8003238:	08002ff3 	.word	0x08002ff3
 800323c:	08003b66 	.word	0x08003b66

08003240 <_printf_common>:
 8003240:	e92d 47f0 	stmdb	sp!, {r4, r5, r6, r7, r8, r9, sl, lr}
 8003244:	4616      	mov	r6, r2
 8003246:	4698      	mov	r8, r3
 8003248:	688a      	ldr	r2, [r1, #8]
 800324a:	4607      	mov	r7, r0
 800324c:	690b      	ldr	r3, [r1, #16]
 800324e:	460c      	mov	r4, r1
 8003250:	f8dd 9020 	ldr.w	r9, [sp, #32]
 8003254:	4293      	cmp	r3, r2
 8003256:	bfb8      	it	lt
 8003258:	4613      	movlt	r3, r2
 800325a:	6033      	str	r3, [r6, #0]
 800325c:	f891 2043 	ldrb.w	r2, [r1, #67]	@ 0x43
 8003260:	b10a      	cbz	r2, 8003266 <_printf_common+0x26>
 8003262:	3301      	adds	r3, #1
 8003264:	6033      	str	r3, [r6, #0]
 8003266:	6823      	ldr	r3, [r4, #0]
 8003268:	0699      	lsls	r1, r3, #26
 800326a:	bf42      	ittt	mi
 800326c:	6833      	ldrmi	r3, [r6, #0]
 800326e:	3302      	addmi	r3, #2
 8003270:	6033      	strmi	r3, [r6, #0]
 8003272:	6825      	ldr	r5, [r4, #0]
 8003274:	f015 0506 	ands.w	r5, r5, #6
 8003278:	d106      	bne.n	8003288 <_printf_common+0x48>
 800327a:	f104 0a19 	add.w	sl, r4, #25
 800327e:	68e3      	ldr	r3, [r4, #12]
 8003280:	6832      	ldr	r2, [r6, #0]
 8003282:	1a9b      	subs	r3, r3, r2
 8003284:	42ab      	cmp	r3, r5
 8003286:	dc2b      	bgt.n	80032e0 <_printf_common+0xa0>
 8003288:	f894 3043 	ldrb.w	r3, [r4, #67]	@ 0x43
 800328c:	6822      	ldr	r2, [r4, #0]
 800328e:	3b00      	subs	r3, #0
 8003290:	bf18      	it	ne
 8003292:	2301      	movne	r3, #1
 8003294:	0692      	lsls	r2, r2, #26
 8003296:	d430      	bmi.n	80032fa <_printf_common+0xba>
 8003298:	f104 0243 	add.w	r2, r4, #67	@ 0x43
 800329c:	4641      	mov	r1, r8
 800329e:	4638      	mov	r0, r7
 80032a0:	47c8      	blx	r9
 80032a2:	3001      	adds	r0, #1
 80032a4:	d023      	beq.n	80032ee <_printf_common+0xae>
 80032a6:	6823      	ldr	r3, [r4, #0]
 80032a8:	341a      	adds	r4, #26
 80032aa:	f854 2c0a 	ldr.w	r2, [r4, #-10]
 80032ae:	f003 0306 	and.w	r3, r3, #6
 80032b2:	2b04      	cmp	r3, #4
 80032b4:	bf0a      	itet	eq
 80032b6:	f854 5c0e 	ldreq.w	r5, [r4, #-14]
 80032ba:	2500      	movne	r5, #0
 80032bc:	6833      	ldreq	r3, [r6, #0]
 80032be:	f04f 0600 	mov.w	r6, #0
 80032c2:	bf08      	it	eq
 80032c4:	1aed      	subeq	r5, r5, r3
 80032c6:	f854 3c12 	ldr.w	r3, [r4, #-18]
 80032ca:	bf08      	it	eq
 80032cc:	ea25 75e5 	biceq.w	r5, r5, r5, asr #31
 80032d0:	4293      	cmp	r3, r2
 80032d2:	bfc4      	itt	gt
 80032d4:	1a9b      	subgt	r3, r3, r2
 80032d6:	18ed      	addgt	r5, r5, r3
 80032d8:	42b5      	cmp	r5, r6
 80032da:	d11a      	bne.n	8003312 <_printf_common+0xd2>
 80032dc:	2000      	movs	r0, #0
 80032de:	e008      	b.n	80032f2 <_printf_common+0xb2>
 80032e0:	2301      	movs	r3, #1
 80032e2:	4652      	mov	r2, sl
 80032e4:	4641      	mov	r1, r8
 80032e6:	4638      	mov	r0, r7
 80032e8:	47c8      	blx	r9
 80032ea:	3001      	adds	r0, #1
 80032ec:	d103      	bne.n	80032f6 <_printf_common+0xb6>
 80032ee:	f04f 30ff 	mov.w	r0, #4294967295
 80032f2:	e8bd 87f0 	ldmia.w	sp!, {r4, r5, r6, r7, r8, r9, sl, pc}
 80032f6:	3501      	adds	r5, #1
 80032f8:	e7c1      	b.n	800327e <_printf_common+0x3e>
 80032fa:	18e1      	adds	r1, r4, r3
 80032fc:	1c5a      	adds	r2, r3, #1
 80032fe:	2030      	movs	r0, #48	@ 0x30
 8003300:	3302      	adds	r3, #2
 8003302:	4422      	add	r2, r4
 8003304:	f881 0043 	strb.w	r0, [r1, #67]	@ 0x43
 8003308:	f894 1045 	ldrb.w	r1, [r4, #69]	@ 0x45
 800330c:	f882 1043 	strb.w	r1, [r2, #67]	@ 0x43
 8003310:	e7c2      	b.n	8003298 <_printf_common+0x58>
 8003312:	2301      	movs	r3, #1
 8003314:	4622      	mov	r2, r4
 8003316:	4641      	mov	r1, r8
 8003318:	4638      	mov	r0, r7
 800331a:	47c8      	blx	r9
 800331c:	3001      	adds	r0, #1
 800331e:	d0e6      	beq.n	80032ee <_printf_common+0xae>
 8003320:	3601      	adds	r6, #1
 8003322:	e7d9      	b.n	80032d8 <_printf_common+0x98>

08003324 <_printf_i>:
 8003324:	e92d 43f0 	stmdb	sp!, {r4, r5, r6, r7, r8, r9, lr}
 8003328:	7e0d      	ldrb	r5, [r1, #24]
 800332a:	b085      	sub	sp, #20
 800332c:	4690      	mov	r8, r2
 800332e:	4607      	mov	r7, r0
 8003330:	2d78      	cmp	r5, #120	@ 0x78
 8003332:	460c      	mov	r4, r1
 8003334:	4699      	mov	r9, r3
 8003336:	9e0c      	ldr	r6, [sp, #48]	@ 0x30
 8003338:	f101 0243 	add.w	r2, r1, #67	@ 0x43
 800333c:	d807      	bhi.n	800334e <_printf_i+0x2a>
 800333e:	2d62      	cmp	r5, #98	@ 0x62
 8003340:	d80a      	bhi.n	8003358 <_printf_i+0x34>
 8003342:	2d00      	cmp	r5, #0
 8003344:	f000 80d7 	beq.w	80034f6 <_printf_i+0x1d2>
 8003348:	2d58      	cmp	r5, #88	@ 0x58
 800334a:	f000 80bc 	beq.w	80034c6 <_printf_i+0x1a2>
 800334e:	f104 0642 	add.w	r6, r4, #66	@ 0x42
 8003352:	f884 5042 	strb.w	r5, [r4, #66]	@ 0x42
 8003356:	e03b      	b.n	80033d0 <_printf_i+0xac>
 8003358:	f1a5 0363 	sub.w	r3, r5, #99	@ 0x63
 800335c:	2b15      	cmp	r3, #21
 800335e:	d8f6      	bhi.n	800334e <_printf_i+0x2a>
 8003360:	a101      	add	r1, pc, #4	@ (adr r1, 8003368 <_printf_i+0x44>)
 8003362:	f851 f023 	ldr.w	pc, [r1, r3, lsl #2]
 8003366:	bf00      	nop
 8003368:	080033c1 	.word	0x080033c1
 800336c:	080033d5 	.word	0x080033d5
 8003370:	0800334f 	.word	0x0800334f
 8003374:	0800334f 	.word	0x0800334f
 8003378:	0800334f 	.word	0x0800334f
 800337c:	0800334f 	.word	0x0800334f
 8003380:	080033d5 	.word	0x080033d5
 8003384:	0800334f 	.word	0x0800334f
 8003388:	0800334f 	.word	0x0800334f
 800338c:	0800334f 	.word	0x0800334f
 8003390:	0800334f 	.word	0x0800334f
 8003394:	080034dd 	.word	0x080034dd
 8003398:	080033ff 	.word	0x080033ff
 800339c:	0800348f 	.word	0x0800348f
 80033a0:	0800334f 	.word	0x0800334f
 80033a4:	0800334f 	.word	0x0800334f
 80033a8:	080034ff 	.word	0x080034ff
 80033ac:	0800334f 	.word	0x0800334f
 80033b0:	080033ff 	.word	0x080033ff
 80033b4:	0800334f 	.word	0x0800334f
 80033b8:	0800334f 	.word	0x0800334f
 80033bc:	08003497 	.word	0x08003497
 80033c0:	6833      	ldr	r3, [r6, #0]
 80033c2:	1d1a      	adds	r2, r3, #4
 80033c4:	681b      	ldr	r3, [r3, #0]
 80033c6:	6032      	str	r2, [r6, #0]
 80033c8:	f104 0642 	add.w	r6, r4, #66	@ 0x42
 80033cc:	f884 3042 	strb.w	r3, [r4, #66]	@ 0x42
 80033d0:	2301      	movs	r3, #1
 80033d2:	e0a1      	b.n	8003518 <_printf_i+0x1f4>
 80033d4:	6833      	ldr	r3, [r6, #0]
 80033d6:	6820      	ldr	r0, [r4, #0]
 80033d8:	1d19      	adds	r1, r3, #4
 80033da:	6031      	str	r1, [r6, #0]
 80033dc:	0606      	lsls	r6, r0, #24
 80033de:	d501      	bpl.n	80033e4 <_printf_i+0xc0>
 80033e0:	681d      	ldr	r5, [r3, #0]
 80033e2:	e003      	b.n	80033ec <_printf_i+0xc8>
 80033e4:	0645      	lsls	r5, r0, #25
 80033e6:	d5fb      	bpl.n	80033e0 <_printf_i+0xbc>
 80033e8:	f9b3 5000 	ldrsh.w	r5, [r3]
 80033ec:	2d00      	cmp	r5, #0
 80033ee:	da03      	bge.n	80033f8 <_printf_i+0xd4>
 80033f0:	232d      	movs	r3, #45	@ 0x2d
 80033f2:	426d      	negs	r5, r5
 80033f4:	f884 3043 	strb.w	r3, [r4, #67]	@ 0x43
 80033f8:	485b      	ldr	r0, [pc, #364]	@ (8003568 <_printf_i+0x244>)
 80033fa:	230a      	movs	r3, #10
 80033fc:	e011      	b.n	8003422 <_printf_i+0xfe>
 80033fe:	6821      	ldr	r1, [r4, #0]
 8003400:	6833      	ldr	r3, [r6, #0]
 8003402:	0608      	lsls	r0, r1, #24
 8003404:	f853 5b04 	ldr.w	r5, [r3], #4
 8003408:	d402      	bmi.n	8003410 <_printf_i+0xec>
 800340a:	0649      	lsls	r1, r1, #25
 800340c:	bf48      	it	mi
 800340e:	b2ad      	uxthmi	r5, r5
 8003410:	6033      	str	r3, [r6, #0]
 8003412:	7e23      	ldrb	r3, [r4, #24]
 8003414:	4854      	ldr	r0, [pc, #336]	@ (8003568 <_printf_i+0x244>)
 8003416:	2b6f      	cmp	r3, #111	@ 0x6f
 8003418:	d15c      	bne.n	80034d4 <_printf_i+0x1b0>
 800341a:	2308      	movs	r3, #8
 800341c:	2100      	movs	r1, #0
 800341e:	f884 1043 	strb.w	r1, [r4, #67]	@ 0x43
 8003422:	6866      	ldr	r6, [r4, #4]
 8003424:	2e00      	cmp	r6, #0
 8003426:	60a6      	str	r6, [r4, #8]
 8003428:	db05      	blt.n	8003436 <_printf_i+0x112>
 800342a:	6821      	ldr	r1, [r4, #0]
 800342c:	432e      	orrs	r6, r5
 800342e:	f021 0104 	bic.w	r1, r1, #4
 8003432:	6021      	str	r1, [r4, #0]
 8003434:	d050      	beq.n	80034d8 <_printf_i+0x1b4>
 8003436:	4616      	mov	r6, r2
 8003438:	fbb5 f1f3 	udiv	r1, r5, r3
 800343c:	fb03 5c11 	mls	ip, r3, r1, r5
 8003440:	f810 c00c 	ldrb.w	ip, [r0, ip]
 8003444:	f806 cd01 	strb.w	ip, [r6, #-1]!
 8003448:	46ac      	mov	ip, r5
 800344a:	460d      	mov	r5, r1
 800344c:	4563      	cmp	r3, ip
 800344e:	d9f3      	bls.n	8003438 <_printf_i+0x114>
 8003450:	2b08      	cmp	r3, #8
 8003452:	d10b      	bne.n	800346c <_printf_i+0x148>
 8003454:	6823      	ldr	r3, [r4, #0]
 8003456:	07db      	lsls	r3, r3, #31
 8003458:	d508      	bpl.n	800346c <_printf_i+0x148>
 800345a:	6923      	ldr	r3, [r4, #16]
 800345c:	6861      	ldr	r1, [r4, #4]
 800345e:	4299      	cmp	r1, r3
 8003460:	bfde      	ittt	le
 8003462:	2330      	movle	r3, #48	@ 0x30
 8003464:	f806 3c01 	strble.w	r3, [r6, #-1]
 8003468:	f106 36ff 	addle.w	r6, r6, #4294967295
 800346c:	1b92      	subs	r2, r2, r6
 800346e:	6122      	str	r2, [r4, #16]
 8003470:	4643      	mov	r3, r8
 8003472:	aa03      	add	r2, sp, #12
 8003474:	4621      	mov	r1, r4
 8003476:	4638      	mov	r0, r7
 8003478:	f8cd 9000 	str.w	r9, [sp]
 800347c:	f7ff fee0 	bl	8003240 <_printf_common>
 8003480:	3001      	adds	r0, #1
 8003482:	d14e      	bne.n	8003522 <_printf_i+0x1fe>
 8003484:	f04f 30ff 	mov.w	r0, #4294967295
 8003488:	b005      	add	sp, #20
 800348a:	e8bd 83f0 	ldmia.w	sp!, {r4, r5, r6, r7, r8, r9, pc}
 800348e:	6823      	ldr	r3, [r4, #0]
 8003490:	f043 0320 	orr.w	r3, r3, #32
 8003494:	6023      	str	r3, [r4, #0]
 8003496:	2578      	movs	r5, #120	@ 0x78
 8003498:	4834      	ldr	r0, [pc, #208]	@ (800356c <_printf_i+0x248>)
 800349a:	6823      	ldr	r3, [r4, #0]
 800349c:	f884 5045 	strb.w	r5, [r4, #69]	@ 0x45
 80034a0:	f013 0f80 	tst.w	r3, #128	@ 0x80
 80034a4:	6831      	ldr	r1, [r6, #0]
 80034a6:	f851 5b04 	ldr.w	r5, [r1], #4
 80034aa:	d103      	bne.n	80034b4 <_printf_i+0x190>
 80034ac:	f013 0f40 	tst.w	r3, #64	@ 0x40
 80034b0:	bf18      	it	ne
 80034b2:	b2ad      	uxthne	r5, r5
 80034b4:	6031      	str	r1, [r6, #0]
 80034b6:	07d9      	lsls	r1, r3, #31
 80034b8:	bf44      	itt	mi
 80034ba:	f043 0320 	orrmi.w	r3, r3, #32
 80034be:	6023      	strmi	r3, [r4, #0]
 80034c0:	b11d      	cbz	r5, 80034ca <_printf_i+0x1a6>
 80034c2:	2310      	movs	r3, #16
 80034c4:	e7aa      	b.n	800341c <_printf_i+0xf8>
 80034c6:	4828      	ldr	r0, [pc, #160]	@ (8003568 <_printf_i+0x244>)
 80034c8:	e7e7      	b.n	800349a <_printf_i+0x176>
 80034ca:	6823      	ldr	r3, [r4, #0]
 80034cc:	f023 0320 	bic.w	r3, r3, #32
 80034d0:	6023      	str	r3, [r4, #0]
 80034d2:	e7f6      	b.n	80034c2 <_printf_i+0x19e>
 80034d4:	230a      	movs	r3, #10
 80034d6:	e7a1      	b.n	800341c <_printf_i+0xf8>
 80034d8:	4616      	mov	r6, r2
 80034da:	e7b9      	b.n	8003450 <_printf_i+0x12c>
 80034dc:	6833      	ldr	r3, [r6, #0]
 80034de:	6825      	ldr	r5, [r4, #0]
 80034e0:	1d18      	adds	r0, r3, #4
 80034e2:	6961      	ldr	r1, [r4, #20]
 80034e4:	6030      	str	r0, [r6, #0]
 80034e6:	062e      	lsls	r6, r5, #24
 80034e8:	681b      	ldr	r3, [r3, #0]
 80034ea:	d501      	bpl.n	80034f0 <_printf_i+0x1cc>
 80034ec:	6019      	str	r1, [r3, #0]
 80034ee:	e002      	b.n	80034f6 <_printf_i+0x1d2>
 80034f0:	0668      	lsls	r0, r5, #25
 80034f2:	d5fb      	bpl.n	80034ec <_printf_i+0x1c8>
 80034f4:	8019      	strh	r1, [r3, #0]
 80034f6:	2300      	movs	r3, #0
 80034f8:	4616      	mov	r6, r2
 80034fa:	6123      	str	r3, [r4, #16]
 80034fc:	e7b8      	b.n	8003470 <_printf_i+0x14c>
 80034fe:	6833      	ldr	r3, [r6, #0]
 8003500:	2100      	movs	r1, #0
 8003502:	1d1a      	adds	r2, r3, #4
 8003504:	6032      	str	r2, [r6, #0]
 8003506:	681e      	ldr	r6, [r3, #0]
 8003508:	6862      	ldr	r2, [r4, #4]
 800350a:	4630      	mov	r0, r6
 800350c:	f000 f968 	bl	80037e0 <memchr>
 8003510:	b108      	cbz	r0, 8003516 <_printf_i+0x1f2>
 8003512:	1b80      	subs	r0, r0, r6
 8003514:	6060      	str	r0, [r4, #4]
 8003516:	6863      	ldr	r3, [r4, #4]
 8003518:	6123      	str	r3, [r4, #16]
 800351a:	2300      	movs	r3, #0
 800351c:	f884 3043 	strb.w	r3, [r4, #67]	@ 0x43
 8003520:	e7a6      	b.n	8003470 <_printf_i+0x14c>
 8003522:	6923      	ldr	r3, [r4, #16]
 8003524:	4632      	mov	r2, r6
 8003526:	4641      	mov	r1, r8
 8003528:	4638      	mov	r0, r7
 800352a:	47c8      	blx	r9
 800352c:	3001      	adds	r0, #1
 800352e:	d0a9      	beq.n	8003484 <_printf_i+0x160>
 8003530:	6823      	ldr	r3, [r4, #0]
 8003532:	079b      	lsls	r3, r3, #30
 8003534:	d413      	bmi.n	800355e <_printf_i+0x23a>
 8003536:	68e0      	ldr	r0, [r4, #12]
 8003538:	9b03      	ldr	r3, [sp, #12]
 800353a:	4298      	cmp	r0, r3
 800353c:	bfb8      	it	lt
 800353e:	4618      	movlt	r0, r3
 8003540:	e7a2      	b.n	8003488 <_printf_i+0x164>
 8003542:	2301      	movs	r3, #1
 8003544:	4632      	mov	r2, r6
 8003546:	4641      	mov	r1, r8
 8003548:	4638      	mov	r0, r7
 800354a:	47c8      	blx	r9
 800354c:	3001      	adds	r0, #1
 800354e:	d099      	beq.n	8003484 <_printf_i+0x160>
 8003550:	3501      	adds	r5, #1
 8003552:	68e3      	ldr	r3, [r4, #12]
 8003554:	9903      	ldr	r1, [sp, #12]
 8003556:	1a5b      	subs	r3, r3, r1
 8003558:	42ab      	cmp	r3, r5
 800355a:	dcf2      	bgt.n	8003542 <_printf_i+0x21e>
 800355c:	e7eb      	b.n	8003536 <_printf_i+0x212>
 800355e:	2500      	movs	r5, #0
 8003560:	f104 0619 	add.w	r6, r4, #25
 8003564:	e7f5      	b.n	8003552 <_printf_i+0x22e>
 8003566:	bf00      	nop
 8003568:	08003b71 	.word	0x08003b71
 800356c:	08003b82 	.word	0x08003b82

08003570 <__sflush_r>:
 8003570:	f9b1 200c 	ldrsh.w	r2, [r1, #12]
 8003574:	e92d 41f0 	stmdb	sp!, {r4, r5, r6, r7, r8, lr}
 8003578:	0716      	lsls	r6, r2, #28
 800357a:	4605      	mov	r5, r0
 800357c:	460c      	mov	r4, r1
 800357e:	d451      	bmi.n	8003624 <__sflush_r+0xb4>
 8003580:	684b      	ldr	r3, [r1, #4]
 8003582:	2b00      	cmp	r3, #0
 8003584:	dc02      	bgt.n	800358c <__sflush_r+0x1c>
 8003586:	6c0b      	ldr	r3, [r1, #64]	@ 0x40
 8003588:	2b00      	cmp	r3, #0
 800358a:	dd49      	ble.n	8003620 <__sflush_r+0xb0>
 800358c:	6ae6      	ldr	r6, [r4, #44]	@ 0x2c
 800358e:	2e00      	cmp	r6, #0
 8003590:	d046      	beq.n	8003620 <__sflush_r+0xb0>
 8003592:	2300      	movs	r3, #0
 8003594:	f412 5280 	ands.w	r2, r2, #4096	@ 0x1000
 8003598:	682f      	ldr	r7, [r5, #0]
 800359a:	602b      	str	r3, [r5, #0]
 800359c:	d031      	beq.n	8003602 <__sflush_r+0x92>
 800359e:	6d62      	ldr	r2, [r4, #84]	@ 0x54
 80035a0:	89a3      	ldrh	r3, [r4, #12]
 80035a2:	0759      	lsls	r1, r3, #29
 80035a4:	d505      	bpl.n	80035b2 <__sflush_r+0x42>
 80035a6:	6863      	ldr	r3, [r4, #4]
 80035a8:	1ad2      	subs	r2, r2, r3
 80035aa:	6b63      	ldr	r3, [r4, #52]	@ 0x34
 80035ac:	b10b      	cbz	r3, 80035b2 <__sflush_r+0x42>
 80035ae:	6c23      	ldr	r3, [r4, #64]	@ 0x40
 80035b0:	1ad2      	subs	r2, r2, r3
 80035b2:	2300      	movs	r3, #0
 80035b4:	6ae6      	ldr	r6, [r4, #44]	@ 0x2c
 80035b6:	6a21      	ldr	r1, [r4, #32]
 80035b8:	4628      	mov	r0, r5
 80035ba:	47b0      	blx	r6
 80035bc:	1c42      	adds	r2, r0, #1
 80035be:	f9b4 300c 	ldrsh.w	r3, [r4, #12]
 80035c2:	d106      	bne.n	80035d2 <__sflush_r+0x62>
 80035c4:	6829      	ldr	r1, [r5, #0]
 80035c6:	291d      	cmp	r1, #29
 80035c8:	d845      	bhi.n	8003656 <__sflush_r+0xe6>
 80035ca:	4a28      	ldr	r2, [pc, #160]	@ (800366c <__sflush_r+0xfc>)
 80035cc:	40ca      	lsrs	r2, r1
 80035ce:	07d6      	lsls	r6, r2, #31
 80035d0:	d541      	bpl.n	8003656 <__sflush_r+0xe6>
 80035d2:	2200      	movs	r2, #0
 80035d4:	04d9      	lsls	r1, r3, #19
 80035d6:	6062      	str	r2, [r4, #4]
 80035d8:	6922      	ldr	r2, [r4, #16]
 80035da:	6022      	str	r2, [r4, #0]
 80035dc:	d504      	bpl.n	80035e8 <__sflush_r+0x78>
 80035de:	1c42      	adds	r2, r0, #1
 80035e0:	d101      	bne.n	80035e6 <__sflush_r+0x76>
 80035e2:	682b      	ldr	r3, [r5, #0]
 80035e4:	b903      	cbnz	r3, 80035e8 <__sflush_r+0x78>
 80035e6:	6560      	str	r0, [r4, #84]	@ 0x54
 80035e8:	6b61      	ldr	r1, [r4, #52]	@ 0x34
 80035ea:	602f      	str	r7, [r5, #0]
 80035ec:	b1c1      	cbz	r1, 8003620 <__sflush_r+0xb0>
 80035ee:	f104 0344 	add.w	r3, r4, #68	@ 0x44
 80035f2:	4299      	cmp	r1, r3
 80035f4:	d002      	beq.n	80035fc <__sflush_r+0x8c>
 80035f6:	4628      	mov	r0, r5
 80035f8:	f7ff fbec 	bl	8002dd4 <_free_r>
 80035fc:	2300      	movs	r3, #0
 80035fe:	6363      	str	r3, [r4, #52]	@ 0x34
 8003600:	e00e      	b.n	8003620 <__sflush_r+0xb0>
 8003602:	2301      	movs	r3, #1
 8003604:	6a21      	ldr	r1, [r4, #32]
 8003606:	4628      	mov	r0, r5
 8003608:	47b0      	blx	r6
 800360a:	4602      	mov	r2, r0
 800360c:	1c50      	adds	r0, r2, #1
 800360e:	d1c7      	bne.n	80035a0 <__sflush_r+0x30>
 8003610:	682b      	ldr	r3, [r5, #0]
 8003612:	2b00      	cmp	r3, #0
 8003614:	d0c4      	beq.n	80035a0 <__sflush_r+0x30>
 8003616:	2b1d      	cmp	r3, #29
 8003618:	d001      	beq.n	800361e <__sflush_r+0xae>
 800361a:	2b16      	cmp	r3, #22
 800361c:	d119      	bne.n	8003652 <__sflush_r+0xe2>
 800361e:	602f      	str	r7, [r5, #0]
 8003620:	2000      	movs	r0, #0
 8003622:	e01d      	b.n	8003660 <__sflush_r+0xf0>
 8003624:	690f      	ldr	r7, [r1, #16]
 8003626:	2f00      	cmp	r7, #0
 8003628:	d0fa      	beq.n	8003620 <__sflush_r+0xb0>
 800362a:	0793      	lsls	r3, r2, #30
 800362c:	680e      	ldr	r6, [r1, #0]
 800362e:	600f      	str	r7, [r1, #0]
 8003630:	bf0c      	ite	eq
 8003632:	694b      	ldreq	r3, [r1, #20]
 8003634:	2300      	movne	r3, #0
 8003636:	eba6 0807 	sub.w	r8, r6, r7
 800363a:	608b      	str	r3, [r1, #8]
 800363c:	f1b8 0f00 	cmp.w	r8, #0
 8003640:	ddee      	ble.n	8003620 <__sflush_r+0xb0>
 8003642:	4643      	mov	r3, r8
 8003644:	463a      	mov	r2, r7
 8003646:	6a21      	ldr	r1, [r4, #32]
 8003648:	4628      	mov	r0, r5
 800364a:	6aa6      	ldr	r6, [r4, #40]	@ 0x28
 800364c:	47b0      	blx	r6
 800364e:	2800      	cmp	r0, #0
 8003650:	dc08      	bgt.n	8003664 <__sflush_r+0xf4>
 8003652:	f9b4 300c 	ldrsh.w	r3, [r4, #12]
 8003656:	f043 0340 	orr.w	r3, r3, #64	@ 0x40
 800365a:	f04f 30ff 	mov.w	r0, #4294967295
 800365e:	81a3      	strh	r3, [r4, #12]
 8003660:	e8bd 81f0 	ldmia.w	sp!, {r4, r5, r6, r7, r8, pc}
 8003664:	4407      	add	r7, r0
 8003666:	eba8 0800 	sub.w	r8, r8, r0
 800366a:	e7e7      	b.n	800363c <__sflush_r+0xcc>
 800366c:	20400001 	.word	0x20400001

08003670 <_fflush_r>:
 8003670:	b538      	push	{r3, r4, r5, lr}
 8003672:	690b      	ldr	r3, [r1, #16]
 8003674:	4605      	mov	r5, r0
 8003676:	460c      	mov	r4, r1
 8003678:	b913      	cbnz	r3, 8003680 <_fflush_r+0x10>
 800367a:	2500      	movs	r5, #0
 800367c:	4628      	mov	r0, r5
 800367e:	bd38      	pop	{r3, r4, r5, pc}
 8003680:	b118      	cbz	r0, 800368a <_fflush_r+0x1a>
 8003682:	6a03      	ldr	r3, [r0, #32]
 8003684:	b90b      	cbnz	r3, 800368a <_fflush_r+0x1a>
 8003686:	f7ff f9ad 	bl	80029e4 <__sinit>
 800368a:	f9b4 300c 	ldrsh.w	r3, [r4, #12]
 800368e:	2b00      	cmp	r3, #0
 8003690:	d0f3      	beq.n	800367a <_fflush_r+0xa>
 8003692:	6e62      	ldr	r2, [r4, #100]	@ 0x64
 8003694:	07d0      	lsls	r0, r2, #31
 8003696:	d404      	bmi.n	80036a2 <_fflush_r+0x32>
 8003698:	0599      	lsls	r1, r3, #22
 800369a:	d402      	bmi.n	80036a2 <_fflush_r+0x32>
 800369c:	6da0      	ldr	r0, [r4, #88]	@ 0x58
 800369e:	f7ff fb96 	bl	8002dce <__retarget_lock_acquire_recursive>
 80036a2:	4628      	mov	r0, r5
 80036a4:	4621      	mov	r1, r4
 80036a6:	f7ff ff63 	bl	8003570 <__sflush_r>
 80036aa:	6e63      	ldr	r3, [r4, #100]	@ 0x64
 80036ac:	4605      	mov	r5, r0
 80036ae:	07da      	lsls	r2, r3, #31
 80036b0:	d4e4      	bmi.n	800367c <_fflush_r+0xc>
 80036b2:	89a3      	ldrh	r3, [r4, #12]
 80036b4:	059b      	lsls	r3, r3, #22
 80036b6:	d4e1      	bmi.n	800367c <_fflush_r+0xc>
 80036b8:	6da0      	ldr	r0, [r4, #88]	@ 0x58
 80036ba:	f7ff fb89 	bl	8002dd0 <__retarget_lock_release_recursive>
 80036be:	e7dd      	b.n	800367c <_fflush_r+0xc>

080036c0 <__swhatbuf_r>:
 80036c0:	b570      	push	{r4, r5, r6, lr}
 80036c2:	460c      	mov	r4, r1
 80036c4:	f9b1 100e 	ldrsh.w	r1, [r1, #14]
 80036c8:	b096      	sub	sp, #88	@ 0x58
 80036ca:	4615      	mov	r5, r2
 80036cc:	2900      	cmp	r1, #0
 80036ce:	461e      	mov	r6, r3
 80036d0:	da0a      	bge.n	80036e8 <__swhatbuf_r+0x28>
 80036d2:	89a1      	ldrh	r1, [r4, #12]
 80036d4:	f011 0180 	ands.w	r1, r1, #128	@ 0x80
 80036d8:	d113      	bne.n	8003702 <__swhatbuf_r+0x42>
 80036da:	f44f 6280 	mov.w	r2, #1024	@ 0x400
 80036de:	2000      	movs	r0, #0
 80036e0:	6031      	str	r1, [r6, #0]
 80036e2:	602a      	str	r2, [r5, #0]
 80036e4:	b016      	add	sp, #88	@ 0x58
 80036e6:	bd70      	pop	{r4, r5, r6, pc}
 80036e8:	466a      	mov	r2, sp
 80036ea:	f000 f847 	bl	800377c <_fstat_r>
 80036ee:	2800      	cmp	r0, #0
 80036f0:	dbef      	blt.n	80036d2 <__swhatbuf_r+0x12>
 80036f2:	9901      	ldr	r1, [sp, #4]
 80036f4:	f401 4170 	and.w	r1, r1, #61440	@ 0xf000
 80036f8:	f5a1 5300 	sub.w	r3, r1, #8192	@ 0x2000
 80036fc:	4259      	negs	r1, r3
 80036fe:	4159      	adcs	r1, r3
 8003700:	e7eb      	b.n	80036da <__swhatbuf_r+0x1a>
 8003702:	2100      	movs	r1, #0
 8003704:	2240      	movs	r2, #64	@ 0x40
 8003706:	e7ea      	b.n	80036de <__swhatbuf_r+0x1e>

08003708 <__smakebuf_r>:
 8003708:	898b      	ldrh	r3, [r1, #12]
 800370a:	b573      	push	{r0, r1, r4, r5, r6, lr}
 800370c:	079e      	lsls	r6, r3, #30
 800370e:	4605      	mov	r5, r0
 8003710:	460c      	mov	r4, r1
 8003712:	d507      	bpl.n	8003724 <__smakebuf_r+0x1c>
 8003714:	f104 0347 	add.w	r3, r4, #71	@ 0x47
 8003718:	6023      	str	r3, [r4, #0]
 800371a:	6123      	str	r3, [r4, #16]
 800371c:	2301      	movs	r3, #1
 800371e:	6163      	str	r3, [r4, #20]
 8003720:	b002      	add	sp, #8
 8003722:	bd70      	pop	{r4, r5, r6, pc}
 8003724:	ab01      	add	r3, sp, #4
 8003726:	466a      	mov	r2, sp
 8003728:	f7ff ffca 	bl	80036c0 <__swhatbuf_r>
 800372c:	9e00      	ldr	r6, [sp, #0]
 800372e:	4628      	mov	r0, r5
 8003730:	4631      	mov	r1, r6
 8003732:	f7ff fbbb 	bl	8002eac <_malloc_r>
 8003736:	f9b4 300c 	ldrsh.w	r3, [r4, #12]
 800373a:	b938      	cbnz	r0, 800374c <__smakebuf_r+0x44>
 800373c:	059a      	lsls	r2, r3, #22
 800373e:	d4ef      	bmi.n	8003720 <__smakebuf_r+0x18>
 8003740:	f023 0303 	bic.w	r3, r3, #3
 8003744:	f043 0302 	orr.w	r3, r3, #2
 8003748:	81a3      	strh	r3, [r4, #12]
 800374a:	e7e3      	b.n	8003714 <__smakebuf_r+0xc>
 800374c:	f043 0380 	orr.w	r3, r3, #128	@ 0x80
 8003750:	6020      	str	r0, [r4, #0]
 8003752:	81a3      	strh	r3, [r4, #12]
 8003754:	9b01      	ldr	r3, [sp, #4]
 8003756:	e9c4 0604 	strd	r0, r6, [r4, #16]
 800375a:	2b00      	cmp	r3, #0
 800375c:	d0e0      	beq.n	8003720 <__smakebuf_r+0x18>
 800375e:	f9b4 100e 	ldrsh.w	r1, [r4, #14]
 8003762:	4628      	mov	r0, r5
 8003764:	f000 f81c 	bl	80037a0 <_isatty_r>
 8003768:	2800      	cmp	r0, #0
 800376a:	d0d9      	beq.n	8003720 <__smakebuf_r+0x18>
 800376c:	89a3      	ldrh	r3, [r4, #12]
 800376e:	f023 0303 	bic.w	r3, r3, #3
 8003772:	f043 0301 	orr.w	r3, r3, #1
 8003776:	81a3      	strh	r3, [r4, #12]
 8003778:	e7d2      	b.n	8003720 <__smakebuf_r+0x18>
	...

0800377c <_fstat_r>:
 800377c:	b538      	push	{r3, r4, r5, lr}
 800377e:	2300      	movs	r3, #0
 8003780:	4d06      	ldr	r5, [pc, #24]	@ (800379c <_fstat_r+0x20>)
 8003782:	4604      	mov	r4, r0
 8003784:	4608      	mov	r0, r1
 8003786:	4611      	mov	r1, r2
 8003788:	602b      	str	r3, [r5, #0]
 800378a:	f7fe ffd7 	bl	800273c <_fstat>
 800378e:	1c43      	adds	r3, r0, #1
 8003790:	d102      	bne.n	8003798 <_fstat_r+0x1c>
 8003792:	682b      	ldr	r3, [r5, #0]
 8003794:	b103      	cbz	r3, 8003798 <_fstat_r+0x1c>
 8003796:	6023      	str	r3, [r4, #0]
 8003798:	bd38      	pop	{r3, r4, r5, pc}
 800379a:	bf00      	nop
 800379c:	200001c8 	.word	0x200001c8

080037a0 <_isatty_r>:
 80037a0:	b538      	push	{r3, r4, r5, lr}
 80037a2:	2300      	movs	r3, #0
 80037a4:	4d05      	ldr	r5, [pc, #20]	@ (80037bc <_isatty_r+0x1c>)
 80037a6:	4604      	mov	r4, r0
 80037a8:	4608      	mov	r0, r1
 80037aa:	602b      	str	r3, [r5, #0]
 80037ac:	f7fe ffd6 	bl	800275c <_isatty>
 80037b0:	1c43      	adds	r3, r0, #1
 80037b2:	d102      	bne.n	80037ba <_isatty_r+0x1a>
 80037b4:	682b      	ldr	r3, [r5, #0]
 80037b6:	b103      	cbz	r3, 80037ba <_isatty_r+0x1a>
 80037b8:	6023      	str	r3, [r4, #0]
 80037ba:	bd38      	pop	{r3, r4, r5, pc}
 80037bc:	200001c8 	.word	0x200001c8

080037c0 <_sbrk_r>:
 80037c0:	b538      	push	{r3, r4, r5, lr}
 80037c2:	2300      	movs	r3, #0
 80037c4:	4d05      	ldr	r5, [pc, #20]	@ (80037dc <_sbrk_r+0x1c>)
 80037c6:	4604      	mov	r4, r0
 80037c8:	4608      	mov	r0, r1
 80037ca:	602b      	str	r3, [r5, #0]
 80037cc:	f7fe ffde 	bl	800278c <_sbrk>
 80037d0:	1c43      	adds	r3, r0, #1
 80037d2:	d102      	bne.n	80037da <_sbrk_r+0x1a>
 80037d4:	682b      	ldr	r3, [r5, #0]
 80037d6:	b103      	cbz	r3, 80037da <_sbrk_r+0x1a>
 80037d8:	6023      	str	r3, [r4, #0]
 80037da:	bd38      	pop	{r3, r4, r5, pc}
 80037dc:	200001c8 	.word	0x200001c8

080037e0 <memchr>:
 80037e0:	b2c9      	uxtb	r1, r1
 80037e2:	4603      	mov	r3, r0
 80037e4:	4402      	add	r2, r0
 80037e6:	b510      	push	{r4, lr}
 80037e8:	4293      	cmp	r3, r2
 80037ea:	4618      	mov	r0, r3
 80037ec:	d101      	bne.n	80037f2 <memchr+0x12>
 80037ee:	2000      	movs	r0, #0
 80037f0:	e003      	b.n	80037fa <memchr+0x1a>
 80037f2:	7804      	ldrb	r4, [r0, #0]
 80037f4:	3301      	adds	r3, #1
 80037f6:	428c      	cmp	r4, r1
 80037f8:	d1f6      	bne.n	80037e8 <memchr+0x8>
 80037fa:	bd10      	pop	{r4, pc}

080037fc <_init>:
 80037fc:	b5f8      	push	{r3, r4, r5, r6, r7, lr}
 80037fe:	bf00      	nop
 8003800:	bcf8      	pop	{r3, r4, r5, r6, r7}
 8003802:	bc08      	pop	{r3}
 8003804:	469e      	mov	lr, r3
 8003806:	4770      	bx	lr

08003808 <_fini>:
 8003808:	b5f8      	push	{r3, r4, r5, r6, r7, lr}
 800380a:	bf00      	nop
 800380c:	bcf8      	pop	{r3, r4, r5, r6, r7}
 800380e:	bc08      	pop	{r3}
 8003810:	469e      	mov	lr, r3
 8003812:	4770      	bx	lr
